BL51 BANKED LINKER/LOCATER V6.22                                                        04/28/2015  17:26:03  PAGE 1


BL51 BANKED LINKER/LOCATER V6.22, INVOKED BY:
C:\KEIL\C51\BIN\BL51.EXE .\Temp\RingBuff.obj, .\Temp\Roller.obj, .\Temp\MiniScheduler.obj, .\Temp\ByteOrder.obj, .\Temp\
>> XilinxInterface.obj, .\Temp\OhdbMain.obj, .\Temp\TimerDrv.obj, .\Temp\UartDrv.obj, .\Temp\SpiDrv.obj, .\Temp\A2D.obj,
>>  .\Temp\Spi_A2D.obj, .\Temp\HeadData.obj, .\Temp\HeaterControl.obj, .\Temp\PrintDriver.obj, .\Temp\D2A.obj, .\Temp\E2
>> PROMInterface.obj, .\Temp\Utils.obj, .\Temp\Watchdog.obj, .\Temp\Comparator.obj, .\Temp\Bumper.obj, .\Temp\MsgDecodeO
>> HDB.obj, .\Temp\ActuatorsOHDB.obj, .\Temp\SensorsOHDB.obj, .\Temp\PotentiometerOHDB.obj, .\Temp\EdenProtocolOHDB.obj,
>>  .\Temp\HeadsVoltageReader.obj, .\Temp\SpiExtA2D.obj TO .\Temp\OHDB2 PRINT (.\Temp\OHDB2.m51) RAMSIZE (256)


MEMORY MODEL: LARGE WITH FLOATING POINT ARITHMETIC


INPUT MODULES INCLUDED:
  .\Temp\RingBuff.obj (RINGBUFF)
  .\Temp\Roller.obj (ROLLER)
  .\Temp\MiniScheduler.obj (MINISCHEDULER)
  .\Temp\ByteOrder.obj (BYTEORDER)
  .\Temp\XilinxInterface.obj (XILINXINTERFACE)
  .\Temp\OhdbMain.obj (OHDBMAIN)
  .\Temp\TimerDrv.obj (TIMERDRV)
  .\Temp\UartDrv.obj (UARTDRV)
  .\Temp\SpiDrv.obj (SPIDRV)
  .\Temp\A2D.obj (A2D)
  .\Temp\Spi_A2D.obj (SPI_A2D)
  .\Temp\HeadData.obj (HEADDATA)
  .\Temp\HeaterControl.obj (HEATERCONTROL)
  .\Temp\PrintDriver.obj (PRINTDRIVER)
  .\Temp\D2A.obj (D2A)
  .\Temp\E2PROMInterface.obj (E2PROMINTERFACE)
  .\Temp\Utils.obj (UTILS)
  .\Temp\Watchdog.obj (WATCHDOG)
  .\Temp\Comparator.obj (COMPARATOR)
  .\Temp\Bumper.obj (BUMPER)
  .\Temp\MsgDecodeOHDB.obj (MSGDECODEOHDB)
  .\Temp\ActuatorsOHDB.obj (ACTUATORSOHDB)
  .\Temp\SensorsOHDB.obj (SENSORSOHDB)
  .\Temp\PotentiometerOHDB.obj (POTENTIOMETEROHDB)
  .\Temp\EdenProtocolOHDB.obj (EDENPROTOCOLOHDB)
  .\Temp\HeadsVoltageReader.obj (HEADSVOLTAGEREADER)
  .\Temp\SpiExtA2D.obj (SPIEXTA2D)
  C:\KEIL\C51\LIB\C51FPL.LIB (?C?FPADD)
  C:\KEIL\C51\LIB\C51FPL.LIB (?C?FPMUL)
  C:\KEIL\C51\LIB\C51FPL.LIB (?C?FPDIV)
  C:\KEIL\C51\LIB\C51FPL.LIB (?C?FCAST)
  C:\KEIL\C51\LIB\C51FPL.LIB (?C?CASTF)
  C:\KEIL\C51\LIB\C51FPL.LIB (POW)
  C:\KEIL\C51\LIB\C51FPL.LIB (?C?FPGETOPN)
  C:\KEIL\C51\LIB\C51FPL.LIB (?C?CHKFLOAT)
  C:\KEIL\C51\LIB\C51FPL.LIB (?C?FPCMP)
  C:\KEIL\C51\LIB\C51FPL.LIB (?C?FPNEG)
  C:\KEIL\C51\LIB\C51FPL.LIB (EXP)
  C:\KEIL\C51\LIB\C51FPL.LIB (LOG)
  C:\KEIL\C51\LIB\C51FPL.LIB (?C?FPSERIES)
  C:\KEIL\C51\LIB\C51L.LIB (?C_STARTUP)
  C:\KEIL\C51\LIB\C51L.LIB (?C?COPY)
  C:\KEIL\C51\LIB\C51L.LIB (?C?CLDPTR)
  C:\KEIL\C51\LIB\C51L.LIB (?C?CLDOPTR)
  C:\KEIL\C51\LIB\C51L.LIB (?C?CILDPTR)
BL51 BANKED LINKER/LOCATER V6.22                                                      04/28/2015  17:26:03  PAGE 2


  C:\KEIL\C51\LIB\C51L.LIB (?C?CILDOPTR)
  C:\KEIL\C51\LIB\C51L.LIB (?C?CSTPTR)
  C:\KEIL\C51\LIB\C51L.LIB (?C?CSTOPTR)
  C:\KEIL\C51\LIB\C51L.LIB (?C?IMUL)
  C:\KEIL\C51\LIB\C51L.LIB (?C?UIDIV)
  C:\KEIL\C51\LIB\C51L.LIB (?C?SIDIV)
  C:\KEIL\C51\LIB\C51L.LIB (?C?IILDX)
  C:\KEIL\C51\LIB\C51L.LIB (?C?ILDIX)
  C:\KEIL\C51\LIB\C51L.LIB (?C?ILDPTR)
  C:\KEIL\C51\LIB\C51L.LIB (?C?ILDOPTR)
  C:\KEIL\C51\LIB\C51L.LIB (?C?ISTPTR)
  C:\KEIL\C51\LIB\C51L.LIB (?C?ISTOPTR)
  C:\KEIL\C51\LIB\C51L.LIB (?C?LMUL)
  C:\KEIL\C51\LIB\C51L.LIB (?C?SLDIV)
  C:\KEIL\C51\LIB\C51L.LIB (?C?LNEG)
  C:\KEIL\C51\LIB\C51L.LIB (?C?LLDOPTR)
  C:\KEIL\C51\LIB\C51L.LIB (?C?LSTOPTR)
  C:\KEIL\C51\LIB\C51L.LIB (?C?LLDCODE)
  C:\KEIL\C51\LIB\C51L.LIB (?C?LLDXDATA0)
  C:\KEIL\C51\LIB\C51L.LIB (?C?LLDCODE0)
  C:\KEIL\C51\LIB\C51L.LIB (?C?LSTXDATA)
  C:\KEIL\C51\LIB\C51L.LIB (?C?LSTKXDATA)
  C:\KEIL\C51\LIB\C51L.LIB (?C?OFFXADD)
  C:\KEIL\C51\LIB\C51L.LIB (?C?CCASE)
  C:\KEIL\C51\LIB\C51L.LIB (?C?ICALL)
  C:\KEIL\C51\LIB\C51L.LIB (ABS)
  C:\KEIL\C51\LIB\C51L.LIB (?C?MEMSET)
  C:\KEIL\C51\LIB\C51L.LIB (?C_INIT)
  C:\KEIL\C51\LIB\C51L.LIB (?C?ULDIV)
  C:\KEIL\C51\LIB\C51L.LIB (?C?LLDIDATA)
  C:\KEIL\C51\LIB\C51L.LIB (?C?LLDXDATA)
  C:\KEIL\C51\LIB\C51L.LIB (?C?LLDPDATA)
  C:\KEIL\C51\LIB\C51L.LIB (?C?LSTIDATA)
  C:\KEIL\C51\LIB\C51L.LIB (?C?LSTPDATA)


LINK MAP OF MODULE:  .\Temp\OHDB2 (RINGBUFF)


            TYPE    BASE      LENGTH    RELOCATION   SEGMENT NAME
            -----------------------------------------------------

            * * * * * * *   D A T A   M E M O R Y   * * * * * * *
            REG     0000H     0008H     ABSOLUTE     "REG BANK 0"
            REG     0008H     0008H     ABSOLUTE     "REG BANK 1"
            REG     0010H     0008H     ABSOLUTE     "REG BANK 2"
            REG     0018H     0008H     ABSOLUTE     "REG BANK 3"
            BIT     0020H.0   0000H.2   UNIT         ?BI?ROLLER
            BIT     0020H.2   0000H.2   UNIT         ?BI?SPIDRV
            BIT     0020H.4   0000H.1   UNIT         ?BI?_RINGBUFFREMOVE?RINGBUFF
            BIT     0020H.5   0000H.1   UNIT         ?BI?RINGBUFF
            BIT     0020H.6   0000H.1   UNIT         ?BI?UART0INIT?UARTDRV
            BIT     0020H.7   0000H.1   UNIT         ?BI?_UARTSEND?UARTDRV
            BIT     0021H.0   0000H.1   UNIT         ?BI?UARTDRV
            BIT     0021H.1   0000H.1   UNIT         ?BI?SETA2D0BUFFERREADINESS?A2D
            BIT     0021H.2   0000H.1   UNIT         ?BI?A2D
            BIT     0021H.3   0000H.1   UNIT         ?BI?HEADSVOLTAGEREADER
BL51 BANKED LINKER/LOCATER V6.22                                                      04/28/2015  17:26:03  PAGE 3


            BIT     0021H.4   0000H.1   UNIT         _BIT_GROUP_
                    0021H.5   0000H.3                *** GAP ***
            DATA    0022H     0001H     UNIT         ?DT?MSGDECODEOHDB
            DATA    0023H     0001H     UNIT         ?DT?HEADSVOLTAGEREADER
            IDATA   0024H     0003H     UNIT         ?ID?SPIEXTA2D_GETVALUES?SPIEXTA2D
            IDATA   0027H     0001H     UNIT         ?ID?_SENSORS_GETMATERIALLEVELSENSORS?SENSORSOHDB
            IDATA   0028H     0001H     UNIT         ?STACK

            * * * * * * *  X D A T A   M E M O R Y  * * * * * * *
            XDATA   0000H     020CH     UNIT         ?XD?MINISCHEDULER
            XDATA   020CH     01FEH     UNIT         ?XD?HEADDATA
            XDATA   040AH     0142H     UNIT         ?XD?EDENPROTOCOLOHDB
            XDATA   054CH     010FH     UNIT         ?XD?MSGDECODEOHDB
            XDATA   065BH     00EFH     UNIT         ?XD?HEATERCONTROL
            XDATA   074AH     00B0H     UNIT         ?XD?UARTDRV
            XDATA   07FAH     0080H     UNIT         ?XD?SPIDRV
            XDATA   087AH     006DH     UNIT         ?XD?SPI_A2D
            XDATA   08E7H     0066H     UNIT         ?XD?E2PROMINTERFACE
            XDATA   094DH     003CH     UNIT         ?XD?_HEADDATA_SETHEADDATATASK?HEADDATA
            XDATA   0989H     003BH     UNIT         ?XD?_GETHEADDATATASK?MSGDECODEOHDB
            XDATA   09C4H     0032H     UNIT         ?XD?_OHDBGETA2DREADINGSTASK?MSGDECODEOHDB
            XDATA   09F6H     002DH     UNIT         ?XD?A2D
            XDATA   0A23H     001FH     UNIT         ?XD?SPIEXTA2D
            XDATA   0A42H     001EH     UNIT         ?XD?HEATERCALCULATECURRENTTEMPEATURES?HEATERCONTROL
            XDATA   0A60H     001CH     UNIT         ?XD?_TEMEPARTUREERRNOTIFCATIONTASK?HEATERCONTROL
            XDATA   0A7CH     001CH     UNIT         ?XD?_GETHEATERSSTATUSTASK?MSGDECODEOHDB
            XDATA   0A98H     001CH     UNIT         ?XD?_GETHEATERSSTANDBYTEMPTASK?MSGDECODEOHDB
            XDATA   0AB4H     001CH     UNIT         ?XD?HEADSVOLTAGEREADER
            XDATA   0AD0H     001AH     UNIT         ?XD?_GETMATERIALLEVELTASK?MSGDECODEOHDB
            XDATA   0AEAH     0012H     UNIT         ?XD?_HEATERSETTEMPERATURES?HEATERCONTROL
            XDATA   0AFCH     0012H     UNIT         ?XD?_GETPRINTINGHEADVOLTAGETASK?MSGDECODEOHDB
            XDATA   0B0EH     0010H     UNIT         ?XD?SENSORSOHDB
            XDATA   0B1EH     000EH     UNIT         ?XD?_HEATERISTEMPRATURESOK?HEATERCONTROL
            XDATA   0B2CH     000EH     UNIT         ?XD?_GETPOWERSUPPLIESTASK?MSGDECODEOHDB
            XDATA   0B3AH     000EH     UNIT         _XDATA_GROUP_
            XDATA   0B48H     000DH     UNIT         ?XD?_E2PROMWRITEBLOCK?E2PROMINTERFACE
            XDATA   0B55H     000CH     UNIT         ?XD?_SWAPUNSIGNEDSHORTARRAY?BYTEORDER
            XDATA   0B61H     000CH     UNIT         ?XD?_SWAPUNSIGNEDLONGARRAY?BYTEORDER
            XDATA   0B6DH     000CH     UNIT         ?XD?PRINTDRIVER
            XDATA   0B79H     000CH     UNIT         ?XD?_OHDBEDENPROTOCOLSEND?EDENPROTOCOLOHDB
            XDATA   0B85H     000BH     UNIT         ?XD?HEADDATA_READDATAFROMALLE2PROMS?HEADDATA
            XDATA   0B90H     000BH     UNIT         ?XD?_PRINTDRV_FIREALLTASK?PRINTDRIVER
            XDATA   0B9BH     000AH     UNIT         ?XD?_PRINTDRV_SETFIREALLPARAMS?PRINTDRIVER
            XDATA   0BA5H     000AH     UNIT         ?XD?_E2PROMREADBLOCK?E2PROMINTERFACE
            XDATA   0BAFH     000AH     UNIT         ?XD?_MESSAGEDECODEOHDB?MSGDECODEOHDB
            XDATA   0BB9H     0009H     UNIT         ?XD?_E2PROMWRITE?E2PROMINTERFACE
            XDATA   0BC2H     0008H     UNIT         ?XD?_SWAPSHORTARRAY?BYTEORDER
            XDATA   0BCAH     0008H     UNIT         ?XD?_SWAPLONGARRAY?BYTEORDER
            XDATA   0BD2H     0008H     UNIT         ?XD?_SPISEND?SPIDRV
            XDATA   0BDAH     0008H     UNIT         ?XD?_CONVERTBLOCKREADINGSTOHEADREADINGS?HEATERCONTROL
            XDATA   0BE2H     0008H     UNIT         ?XD?_E2PROMREADBYTE?E2PROMINTERFACE
            XDATA   0BEAH     0008H     UNIT         ?XD?BUMPER
            XDATA   0BF2H     0008H     UNIT         ?XD?_RESETDRIVERCIRCUITTASK?MSGDECODEOHDB
            XDATA   0BFAH     0007H     UNIT         ?XD?_SWAPUNSIGNEDSHORT?BYTEORDER
            XDATA   0C01H     0007H     UNIT         ?XD?_SWAPUNSIGNEDLONG?BYTEORDER
            XDATA   0C08H     0007H     UNIT         ?XD?_HEATERSETSTANDBYTEMPERATURES?HEATERCONTROL
            XDATA   0C0FH     0007H     UNIT         ?XD?_UTILS_CALCULATECHECKSUM?UTILS
BL51 BANKED LINKER/LOCATER V6.22                                                      04/28/2015  17:26:03  PAGE 4


            XDATA   0C16H     0007H     UNIT         ?XD?_ISHEADTEMPOKTASK?MSGDECODEOHDB
            XDATA   0C1DH     0007H     UNIT         ?XD?_GETROLLERSTATUSTASK?MSGDECODEOHDB
            XDATA   0C24H     0006H     UNIT         ?XD?_RINGBUFFREMOVE?RINGBUFF
            XDATA   0C2AH     0006H     UNIT         ?XD?_INSERTBYTE?RINGBUFF
            XDATA   0C30H     0006H     UNIT         ?XD?XILINXINTERFACE
            XDATA   0C36H     0006H     UNIT         ?XD?MAIN?OHDBMAIN
            XDATA   0C3CH     0006H     UNIT         ?XD?_TIMERDELAY?TIMERDRV
            XDATA   0C42H     0006H     UNIT         ?XD?TIMERDRV
            XDATA   0C48H     0006H     UNIT         ?XD?_SPIA2D_GETBLOCKREADINGS?SPI_A2D
            XDATA   0C4EH     0006H     UNIT         ?XD?_SPIA2D_GETSW_VERSION?SPI_A2D
            XDATA   0C54H     0006H     UNIT         ?XD?_HEADDATA_SETHEADDATATASKPARAMS?HEADDATA
            XDATA   0C5AH     0006H     UNIT         ?XD?_HEATERCONTROLTASK?HEATERCONTROL
            XDATA   0C60H     0006H     UNIT         ?XD?_PRINTDRV_WRITETOREGISTER?PRINTDRIVER
            XDATA   0C66H     0006H     UNIT         ?XD?POTENTIOMETEROHDB
            XDATA   0C6CH     0005H     UNIT         ?XD?_GETMSGPTRBYHANDLE?RINGBUFF
            XDATA   0C71H     0005H     UNIT         ?XD?_ROLLER_SETSPEED?ROLLER
            XDATA   0C76H     0005H     UNIT         ?XD?_ROLLER_ISGETOPERATIONDONE?ROLLER
            XDATA   0C7BH     0005H     UNIT         ?XD?_XILINXWRITE?XILINXINTERFACE
            XDATA   0C80H     0005H     UNIT         ?XD?_TIMERSETTIMEOUT?TIMERDRV
            XDATA   0C85H     0005H     UNIT         ?XD?_TIMERHASTIMEOUTEXPIRED?TIMERDRV
            XDATA   0C8AH     0005H     UNIT         ?XD?_UARTSEND?UARTDRV
            XDATA   0C8FH     0005H     UNIT         ?XD?_HEADDATA_GETHEADDATA?HEADDATA
            XDATA   0C94H     0005H     UNIT         ?XD?_PRINTDRV_SETSTARTPEG?PRINTDRIVER
            XDATA   0C99H     0005H     UNIT         ?XD?_PRINTDRV_SETENDPEG?PRINTDRIVER
            XDATA   0C9EH     0005H     UNIT         ?XD?_PRINTDRV_SETNUMOFFIRES?PRINTDRIVER
            XDATA   0CA3H     0005H     UNIT         ?XD?_PRINTDRV_SETDIAGNOSTICS?PRINTDRIVER
            XDATA   0CA8H     0005H     UNIT         ?XD?_PRINTDRV_SETBUMPERENDPEG?PRINTDRIVER
            XDATA   0CADH     0005H     UNIT         ?XD?_PRINTDRV_SETBUMPERSTARTPEG?PRINTDRIVER
            XDATA   0CB2H     0005H     UNIT         ?XD?_PRINTDRV_ISGETOPERATIONDONE?PRINTDRIVER
            XDATA   0CB7H     0005H     UNIT         ?XD?_E2PROMGETRECEIVEDDATA?E2PROMINTERFACE
            XDATA   0CBCH     0005H     UNIT         ?XD?_BUMPER_SETPARAMETERS?BUMPER
            XDATA   0CC1H     0005H     UNIT         ?XD?_OHDBMESSAGEDECODETASK?MSGDECODEOHDB
            XDATA   0CC6H     0005H     UNIT         ?XD?_E2PROMREADTASK?MSGDECODEOHDB
            XDATA   0CCBH     0005H     UNIT         ?XD?_XILINXREADTASK?MSGDECODEOHDB
            XDATA   0CD0H     0005H     UNIT         ?XD?_SETPRINTINGHEADSPARAMSTASK?MSGDECODEOHDB
            XDATA   0CD5H     0005H     UNIT         ?XD?_SETPRINTINGPASSPARAMSTASK?MSGDECODEOHDB
            XDATA   0CDAH     0005H     UNIT         ?XD?_ENABLEPRINTINGCIRCUITRYTASK?MSGDECODEOHDB
            XDATA   0CDFH     0005H     UNIT         ?XD?_DISABLEPRINTINGCIRCUITRYTASK?MSGDECODEOHDB
            XDATA   0CE4H     0005H     UNIT         ?XD?_RESETDRIVERSTATETASK?MSGDECODEOHDB
            XDATA   0CE9H     0005H     UNIT         ?XD?_APPLYDEFAULTPARAMSTASK?MSGDECODEOHDB
            XDATA   0CEEH     0005H     UNIT         ?XD?_SETPRINTINGHEADVOLTAGETASK?MSGDECODEOHDB
            XDATA   0CF3H     0005H     UNIT         ?XD?_SETBUMPERPEGONOFFTASK?MSGDECODEOHDB
            XDATA   0CF8H     0005H     UNIT         ?XD?_SENSORS_SETHEADSVACUUMPARAMS?SENSORSOHDB
            XDATA   0CFDH     0005H     UNIT         ?XD?_OHDBEDENPROTOCOLDECODE?EDENPROTOCOLOHDB
            XDATA   0D02H     0005H     UNIT         ?XD?_A2D0READER_GETBLOCKREADINGS?HEADSVOLTAGEREADER
            XDATA   0D07H     0004H     UNIT         ?XD?_ROLLER_ENABLEDRIVER?ROLLER
            XDATA   0D0BH     0004H     UNIT         ?XD?_ROLLER_SETONOFF?ROLLER
            XDATA   0D0FH     0004H     UNIT         ?XD?_SCHEDULERINSTALLTASK?MINISCHEDULER
            XDATA   0D13H     0004H     UNIT         ?XD?_DIFFTIME?TIMERDRV
            XDATA   0D17H     0004H     UNIT         ?XD?_HEATERGETCURRENTTEMPERATURES?HEATERCONTROL
            XDATA   0D1BH     0004H     UNIT         ?XD?_HEATERSETHEATERSTATE?HEATERCONTROL
            XDATA   0D1FH     0004H     UNIT         ?XD?_HEATERSACTIVATIONTASK?HEATERCONTROL
            XDATA   0D23H     0004H     UNIT         ?XD?GETNORMALIZEDBLOCKHEATERSAVERAGE?HEATERCONTROL
            XDATA   0D27H     0004H     UNIT         ?XD?_PRINTDRV_SETRESULOTION?PRINTDRIVER
            XDATA   0D2BH     0004H     UNIT         ?XD?_PRINTDRV_SETCOMMDIRECTION?PRINTDRIVER
            XDATA   0D2FH     0004H     UNIT         ?XD?_PRINTDRV_ENABLEDISABLEBUMPERPEG?PRINTDRIVER
            XDATA   0D33H     0004H     UNIT         ?XD?_XILINXWATCHDOGTASK?WATCHDOG
BL51 BANKED LINKER/LOCATER V6.22                                                      04/28/2015  17:26:03  PAGE 5


            XDATA   0D37H     0004H     UNIT         ?XD?WATCHDOG
            XDATA   0D3BH     0004H     UNIT         ?XD?_XILINXWRITETASK?MSGDECODEOHDB
            XDATA   0D3FH     0004H     UNIT         ?XD?_POTENTIOMETERWRITETASK?MSGDECODEOHDB
            XDATA   0D43H     0004H     UNIT         ?XD?_E2PROMWRITETASK?MSGDECODEOHDB
            XDATA   0D47H     0004H     UNIT         ?XD?_SETROLLERONOFFTASK?MSGDECODEOHDB
            XDATA   0D4BH     0004H     UNIT         ?XD?_SETROLLERSPEEDTASK?MSGDECODEOHDB
            XDATA   0D4FH     0004H     UNIT         ?XD?_SETHEATERSSTANDBYTEMPTASK?MSGDECODEOHDB
            XDATA   0D53H     0004H     UNIT         ?XD?_SETBUMPERPARAMSTASK?MSGDECODEOHDB
            XDATA   0D57H     0004H     UNIT         ?XD?_SETHEATERSTEMPTASK?MSGDECODEOHDB
            XDATA   0D5BH     0004H     UNIT         ?XD?_SETHEATERSONOFFTASK?MSGDECODEOHDB
            XDATA   0D5FH     0004H     UNIT         ?XD?_GETVACUUMSENSORTASK?MSGDECODEOHDB
            XDATA   0D63H     0004H     UNIT         ?XD?_GETAMBIENTTEMPTASK?MSGDECODEOHDB
            XDATA   0D67H     0004H     UNIT         ?XD?_SETHEADSVACUUMTASK?MSGDECODEOHDB
            XDATA   0D6BH     0004H     UNIT         ?XD?_GETSOFTWAREVERSIONTASK?MSGDECODEOHDB
            XDATA   0D6FH     0004H     UNIT         ?XD?_OHDBGETA2DSWVERSIONTASK?MSGDECODEOHDB
            XDATA   0D73H     0004H     UNIT         ?XD?_SETMATERIALCOOLINGFANSTASK?MSGDECODEOHDB
            XDATA   0D77H     0004H     UNIT         ?XD?_GETFIREALLSTATUSTASK?MSGDECODEOHDB
            XDATA   0D7BH     0004H     UNIT         ?XD?_SETDEBUGMODETASK?MSGDECODEOHDB
            XDATA   0D7FH     0004H     UNIT         ?XD?_SETHEADDATANACKTASK?MSGDECODEOHDB
            XDATA   0D83H     0004H     UNIT         ?XD?_SETBUMPERIMPACTONOFFTASK?MSGDECODEOHDB
            XDATA   0D87H     0004H     UNIT         ?XD?_FANSACTIVATIONTASK?ACTUATORSOHDB
            XDATA   0D8BH     0004H     UNIT         ?XD?ACTUATORSOHDB
            XDATA   0D8FH     0004H     UNIT         ?XD?_OHDBPOTENMTRWRITEVALUE?POTENTIOMETEROHDB
            XDATA   0D93H     0004H     UNIT         ?XD?_HEADSVOLTAGEREADERTASK?HEADSVOLTAGEREADER
            XDATA   0D97H     0003H     UNIT         ?XD?_RINGBUFFGETELEMENTCOUNT?RINGBUFF
            XDATA   0D9AH     0003H     UNIT         ?XD?_RINGBUFFINIT?RINGBUFF
            XDATA   0D9DH     0003H     UNIT         ?XD?_RINGBUFFINSERT?RINGBUFF
            XDATA   0DA0H     0003H     UNIT         ?XD?_MSGRINGBUFFINIT?RINGBUFF
            XDATA   0DA3H     0003H     UNIT         ?XD?_GETAVAILABLEMSGHANDLE?RINGBUFF
            XDATA   0DA6H     0003H     UNIT         ?XD?_MARKMSGASREADY?RINGBUFF
            XDATA   0DA9H     0003H     UNIT         ?XD?_GETREADYMSGSNUMBER?RINGBUFF
            XDATA   0DACH     0003H     UNIT         ?XD?_GETREADYMSGHANDLE?RINGBUFF
            XDATA   0DAFH     0003H     UNIT         ?XD?_REMOVEMSG?RINGBUFF
            XDATA   0DB2H     0003H     UNIT         ?XD?_SCHEDULERTASKSLEEP?MINISCHEDULER
            XDATA   0DB5H     0003H     UNIT         ?XD?_SWAPSHORT?BYTEORDER
            XDATA   0DB8H     0003H     UNIT         ?XD?_SWAPLONG?BYTEORDER
            XDATA   0DBBH     0003H     UNIT         ?XD?_XILINXREAD?XILINXINTERFACE
            XDATA   0DBEH     0003H     UNIT         ?XD?_XILINXGETRECEIVEDDATA?XILINXINTERFACE
            XDATA   0DC1H     0003H     UNIT         ?XD?_A2D0_GETREADING?A2D
            XDATA   0DC4H     0003H     UNIT         ?XD?_A2D2_GETREADING?A2D
            XDATA   0DC7H     0003H     UNIT         ?XD?SPIA2D_GETVALUESBYSPI?SPI_A2D
            XDATA   0DCAH     0003H     UNIT         ?XD?_SPIA2D_GETREADING?SPI_A2D
            XDATA   0DCDH     0003H     UNIT         ?XD?_HEATERSETTEMPERATURE?HEATERCONTROL
            XDATA   0DD0H     0003H     UNIT         ?XD?_HEATERGETSTANDBYTEMPERATURES?HEATERCONTROL
            XDATA   0DD3H     0003H     UNIT         ?XD?PRINTDRV_INIT?PRINTDRIVER
            XDATA   0DD6H     0003H     UNIT         ?XD?PRINTDRV_RESETDRIVER?PRINTDRIVER
            XDATA   0DD9H     0003H     UNIT         ?XD?PRINTDRV_RESETSTATEMACHINE?PRINTDRIVER
            XDATA   0DDCH     0003H     UNIT         ?XD?PRINTDRV_ENABLEPRINTINGCIRCUITRY?PRINTDRIVER
            XDATA   0DDFH     0003H     UNIT         ?XD?PRINTDRV_DISBLEPRINTINGCIRCUITRY?PRINTDRIVER
            XDATA   0DE2H     0003H     UNIT         ?XD?_E2PROMWRITEENABLE?E2PROMINTERFACE
            XDATA   0DE5H     0003H     UNIT         ?XD?_BUMPER_IMPACTDETECTIONTASK?BUMPER
            XDATA   0DE8H     0003H     UNIT         ?XD?_ISHEADSVACUUMOKTASK?MSGDECODEOHDB
            XDATA   0DEBH     0003H     UNIT         ?XD?_GETHARDWAREVERSIONTASK?MSGDECODEOHDB
            XDATA   0DEEH     0003H     UNIT         ?XD?_SENSORS_GETMATERIALLEVELSENSORS?SENSORSOHDB
            XDATA   0DF1H     0003H     UNIT         ?XD?_SENSORS_GETVACUUMSENSOR?SENSORSOHDB
            XDATA   0DF4H     0003H     UNIT         ?XD?_SENSORS_GETPOWERSUPPLIESVOLTAGES?SENSORSOHDB
            XDATA   0DF7H     0003H     UNIT         ?XD?_A2D0READER_GETHEADSVOLTAGES?HEADSVOLTAGEREADER
BL51 BANKED LINKER/LOCATER V6.22                                                      04/28/2015  17:26:03  PAGE 6


            XDATA   0DFAH     0002H     UNIT         ?XD?_SCHEDULERRESUMETASK?MINISCHEDULER
            XDATA   0DFCH     0002H     UNIT         ?XD?SENDWAKEUPNOTIFICATION?OHDBMAIN
            XDATA   0DFEH     0002H     UNIT         ?XD?SYSCLKINIT?TIMERDRV
            XDATA   0E00H     0002H     UNIT         ?XD?TIMER0GETTIMERCOUNTER?TIMERDRV
            XDATA   0E02H     0002H     UNIT         ?XD?_SPISELECTSLAVE?SPIDRV
            XDATA   0E04H     0002H     UNIT         ?XD?SPIA2D_GETSWVERSIONBYSPI?SPI_A2D
            XDATA   0E06H     0002H     UNIT         ?XD?ARERETRIESNEEDED_GETSWVER?SPI_A2D
            XDATA   0E08H     0002H     UNIT         ?XD?_HEATERSETTASKSHANDLES?HEATERCONTROL
            XDATA   0E0AH     0002H     UNIT         ?XD?_HEATERSTATUSTASK?HEATERCONTROL
            XDATA   0E0CH     0002H     UNIT         ?XD?AREPERIMETERHEATERSREACHEDSETPOINT?HEATERCONTROL
            XDATA   0E0EH     0002H     UNIT         ?XD?_PRINTDRV_SETHEADVOLTAGE?PRINTDRIVER
            XDATA   0E10H     0002H     UNIT         ?XD?_PRINTDRV_ISSETVOLTAGEDONE?PRINTDRIVER
            XDATA   0E12H     0002H     UNIT         ?XD?_D2A0_WRITE?D2A
            XDATA   0E14H     0002H     UNIT         ?XD?_D2A1_WRITE?D2A
            XDATA   0E16H     0002H     UNIT         ?XD?_OHDBPINGTASK?MSGDECODEOHDB
            XDATA   0E18H     0002H     UNIT         ?XD?_SETMATERIALCOOLINGFANSONOFF?ACTUATORSOHDB
            XDATA   0E1AH     0002H     UNIT         ?XD?SENSORS_ISHEADSVACUUMOK?SENSORSOHDB
            XDATA   0E1CH     0002H     UNIT         ?XD?_EDENPROTOCOLDECODETASK?EDENPROTOCOLOHDB
            XDATA   0E1EH     0002H     UNIT         ?XD?SPIEXTA2D_SENDREQUEST?SPIEXTA2D
            XDATA   0E20H     0001H     UNIT         ?XD?_SCHEDULERSUSPENDTASK?MINISCHEDULER
            XDATA   0E21H     0001H     UNIT         ?XD?_SCHEDULERLEAVETASK?MINISCHEDULER
            XDATA   0E22H     0001H     UNIT         ?XD?SCHEDULERRUN?MINISCHEDULER
            XDATA   0E23H     0001H     UNIT         ?XD?_SCHEDULERGETTASKSTATE?MINISCHEDULER
            XDATA   0E24H     0001H     UNIT         ?XD?_SCHEDULERGETTASKARG?MINISCHEDULER
            XDATA   0E25H     0001H     UNIT         ?XD?_XILINXCALLBACK?XILINXINTERFACE
            XDATA   0E26H     0001H     UNIT         ?XD?_SPISETCOMMWITHA2D?SPIDRV
            XDATA   0E27H     0001H     UNIT         ?XD?_SPIA2D_TASK?SPI_A2D
            XDATA   0E28H     0001H     UNIT         ?XD?_SPIA2D_CALLBACK?SPI_A2D
            XDATA   0E29H     0001H     UNIT         ?XD?HEATERCONTROLINIT?HEATERCONTROL
            XDATA   0E2AH     0001H     UNIT         ?XD?_HEATERCONTROLSETONOFF?HEATERCONTROL
            XDATA   0E2BH     0001H     UNIT         ?XD?PRINTDRV_ISSETOPERATIONDONE?PRINTDRIVER
            XDATA   0E2CH     0001H     UNIT         ?XD?_E2PROMCALLBACK?E2PROMINTERFACE
            XDATA   0E2DH     0001H     UNIT         ?XD?_E2PROMGETWRITESTATUS?E2PROMINTERFACE
            XDATA   0E2EH     0001H     UNIT         ?XD?_COMMUNICATIONLOSSTASK?WATCHDOG
            XDATA   0E2FH     0001H     UNIT         ?XD?_ENABLEDISABLECOMMLOSSTASK?WATCHDOG
            XDATA   0E30H     0001H     UNIT         ?XD?_SETROLLEROFFTASK?WATCHDOG
            XDATA   0E31H     0001H     UNIT         ?XD?_BUMPER_SETONOFF?BUMPER
            XDATA   0E32H     0001H     UNIT         ?XD?_OHDBPOTENMTRCALLBACK?POTENTIOMETEROHDB
            XDATA   0E33H     0001H     UNIT         ?XD?_OHDBPOTENMTRGETWRITESTATUS?POTENTIOMETEROHDB
            XDATA   0E34H     0001H     UNIT         ?XD?_A2D0READER_GETREADING?HEADSVOLTAGEREADER
            XDATA   0E35H     0001H     UNIT         ?XD?_SPIEXTA2D_TASK?SPIEXTA2D
            XDATA   0E36H     0001H     UNIT         ?XD?_SPIEXTA2D_CALLBACK?SPIEXTA2D
            XDATA   0E37H     0001H     UNIT         ?XD?_SPIEXTA2D_GETREADING?SPIEXTA2D

            * * * * * * *   C O D E   M E M O R Y   * * * * * * *
            CODE    0000H     0003H     ABSOLUTE     
            CODE    0003H     0003H     ABSOLUTE     
            CODE    0006H     0005H     UNIT         ?PR?ROLLER_INIT?ROLLER
            CODE    000BH     0003H     ABSOLUTE     
            CODE    000EH     0005H     UNIT         ?PR?SETA2D0BUFFERREADINESS?A2D
            CODE    0013H     0003H     ABSOLUTE     
            CODE    0016H     0003H     UNIT         ?PR?SPIUNLOCK?SPIDRV
            CODE    0019H     0001H     UNIT         ?PR?DUMMY_INT_3?OHDBMAIN
            CODE    001AH     0001H     UNIT         ?PR?DUMMY_INT_5?OHDBMAIN
            CODE    001BH     0003H     ABSOLUTE     
            CODE    001EH     0003H     UNIT         ?PR?ISA2D0BUFFERREADY?A2D
            CODE    0021H     0001H     UNIT         ?PR?DUMMY_INT_7?OHDBMAIN
BL51 BANKED LINKER/LOCATER V6.22                                                      04/28/2015  17:26:03  PAGE 7


            CODE    0022H     0001H     UNIT         ?PR?DUMMY_INT_8?OHDBMAIN
            CODE    0023H     0003H     ABSOLUTE     
            CODE    0026H     0003H     UNIT         ?PR?PRINTDRV_GETBUMPERIMPACT?PRINTDRIVER
            CODE    0029H     0001H     UNIT         ?PR?DUMMY_INT_9?OHDBMAIN
            CODE    002AH     0001H     UNIT         ?PR?TIMER_4_ISR?TIMERDRV
            CODE    002BH     0003H     ABSOLUTE     
            CODE    002EH     0003H     UNIT         ?PR?DISABLEBUMPERINTERRUPT?BUMPER
            CODE    0031H     0001H     UNIT         ?PR?UART1ISR?UARTDRV
                    0032H     0001H                  *** GAP ***
            CODE    0033H     0003H     ABSOLUTE     
            CODE    0036H     0003H     UNIT         ?PR?ENABLEBUMPERINTERRUPT?BUMPER
                    0039H     0002H                  *** GAP ***
            CODE    003BH     0003H     ABSOLUTE     
                    003EH     0005H                  *** GAP ***
            CODE    0043H     0003H     ABSOLUTE     
                    0046H     0005H                  *** GAP ***
            CODE    004BH     0003H     ABSOLUTE     
            CODE    004EH     002DH     UNIT         ?PR?_PRINTDRV_SETRESULOTION?PRINTDRIVER
            CODE    007BH     0003H     ABSOLUTE     
                    007EH     0005H                  *** GAP ***
            CODE    0083H     0003H     ABSOLUTE     
            CODE    0086H     000CH     UNIT         ?PR?SCHEDULERINIT?MINISCHEDULER
                    0092H     0001H                  *** GAP ***
            CODE    0093H     0003H     ABSOLUTE     
            CODE    0096H     000CH     UNIT         ?PR?E2PROMINIT?E2PROMINTERFACE
                    00A2H     0001H                  *** GAP ***
            CODE    00A3H     0003H     ABSOLUTE     
            CODE    00A6H     12AEH     UNIT         ?PR?_MESSAGEDECODEOHDB?MSGDECODEOHDB
            CODE    1354H     0A13H     UNIT         ?C?LIB_CODE
            CODE    1D67H     0935H     UNIT         ?PR?_OHDBEDENPROTOCOLDECODE?EDENPROTOCOLOHDB
            CODE    269CH     04F0H     UNIT         ?PR?_PRINTDRV_FIREALLTASK?PRINTDRIVER
            CODE    2B8CH     03B1H     UNIT         ?PR?_HEADDATA_SETHEADDATATASK?HEADDATA
            CODE    2F3DH     0382H     UNIT         ?PR?_HEATERCONTROLTASK?HEATERCONTROL
            CODE    32BFH     0340H     UNIT         ?PR?_SETPRINTINGHEADSPARAMSTASK?MSGDECODEOHDB
            CODE    35FFH     02C4H     UNIT         ?PR?HEADDATA_READDATAFROMALLE2PROMS?HEADDATA
            CODE    38C3H     02A2H     UNIT         ?PR?HEATERCALCULATECURRENTTEMPEATURES?HEATERCONTROL
            CODE    3B65H     027BH     UNIT         ?PR?MESSAGEDECODEINITOHDB?MSGDECODEOHDB
            CODE    3DE0H     0221H     UNIT         ?PR?_OHDBEDENPROTOCOLSEND?EDENPROTOCOLOHDB
            CODE    4001H     01E3H     UNIT         ?PR?_SETPRINTINGPASSPARAMSTASK?MSGDECODEOHDB
            CODE    41E4H     01A3H     UNIT         ?PR?_HEATERISTEMPRATURESOK?HEATERCONTROL
            CODE    4387H     0187H     UNIT         ?PR?_E2PROMWRITEBLOCK?E2PROMINTERFACE
            CODE    450EH     0166H     UNIT         ?PR?_POW?POW
            CODE    4674H     015DH     UNIT         ?PR?_SWAPUNSIGNEDLONGARRAY?BYTEORDER
            CODE    47D1H     0155H     UNIT         ?PR?_CONVERTBLOCKREADINGSTOHEADREADINGS?HEATERCONTROL
            CODE    4926H     012EH     UNIT         ?PR?SCHEDULERRUN?MINISCHEDULER
            CODE    4A54H     0129H     UNIT         ?PR?HEATERCONTROLINIT?HEATERCONTROL
            CODE    4B7DH     0129H     UNIT         ?PR?LOG?LOG
            CODE    4CA6H     0128H     UNIT         ?PR?_XILINXREADTASK?MSGDECODEOHDB
            CODE    4DCEH     0126H     UNIT         ?PR?_HEATERSETTEMPERATURES?HEATERCONTROL
            CODE    4EF4H     011DH     UNIT         ?PR?SPIISR?SPIDRV
            CODE    5011H     0118H     UNIT         ?PR?_E2PROMREADBLOCK?E2PROMINTERFACE
            CODE    5129H     0107H     UNIT         ?PR?_RINGBUFFINSERT?RINGBUFF
            CODE    5230H     0104H     UNIT         ?PR?_RESETDRIVERCIRCUITTASK?MSGDECODEOHDB
            CODE    5334H     00F5H     UNIT         ?PR?_APPLYDEFAULTPARAMSTASK?MSGDECODEOHDB
            CODE    5429H     00F4H     UNIT         ?PR?MAIN?OHDBMAIN
            CODE    551DH     00EFH     UNIT         ?PR?_ENABLEPRINTINGCIRCUITRYTASK?MSGDECODEOHDB
            CODE    560CH     00EBH     UNIT         ?PR?_RINGBUFFREMOVE?RINGBUFF
BL51 BANKED LINKER/LOCATER V6.22                                                      04/28/2015  17:26:03  PAGE 8


            CODE    56F7H     00E9H     UNIT         ?PR?_SWAPUNSIGNEDSHORTARRAY?BYTEORDER
            CODE    57E0H     00E2H     UNIT         ?PR?_E2PROMWRITE?E2PROMINTERFACE
            CODE    58C2H     00E2H     UNIT         ?PR?_SETPRINTINGHEADVOLTAGETASK?MSGDECODEOHDB
            CODE    59A4H     00E0H     UNIT         ?PR?_UARTSEND?UARTDRV
            CODE    5A84H     00E0H     UNIT         ?PR?_E2PROMWRITETASK?MSGDECODEOHDB
            CODE    5B64H     00DCH     UNIT         ?PR?_HEATERSTATUSTASK?HEATERCONTROL
            CODE    5C40H     00DBH     UNIT         ?PR?_BUMPER_IMPACTDETECTIONTASK?BUMPER
            CODE    5D1BH     00D8H     UNIT         ?PR?_GETHEADDATATASK?MSGDECODEOHDB
            CODE    5DF3H     00D5H     UNIT         ?PR?_E2PROMREADBYTE?E2PROMINTERFACE
            CODE    5EC8H     00D4H     UNIT         ?PR?_XILINXWRITE?XILINXINTERFACE
            CODE    5F9CH     00D3H     UNIT         ?PR?_SETROLLERONOFFTASK?MSGDECODEOHDB
            CODE    606FH     00D2H     UNIT         ?PR?_SWAPUNSIGNEDLONG?BYTEORDER
            CODE    6141H     00C9H     UNIT         ?PR?_E2PROMREADTASK?MSGDECODEOHDB
            CODE    620AH     00C5H     UNIT         ?PR?SPIEXTA2D_GETVALUES?SPIEXTA2D
            CODE    62CFH     00C2H     UNIT         ?PR?_HEADSVOLTAGEREADERTASK?HEADSVOLTAGEREADER
            CODE    6391H     00BDH     UNIT         ?PR?_GETROLLERSTATUSTASK?MSGDECODEOHDB
            CODE    644EH     00BBH     UNIT         ?PR?_SCHEDULERTASKSLEEP?MINISCHEDULER
            CODE    6509H     00B0H     UNIT         ?PR?_SETBUMPERPEGONOFFTASK?MSGDECODEOHDB
            CODE    65B9H     00AFH     UNIT         ?PR?_RINGBUFFINIT?RINGBUFF
            CODE    6668H     00AFH     UNIT         ?C_INITSEG
            CODE    6717H     00AEH     UNIT         ?PR?_SENSORS_GETPOWERSUPPLIESVOLTAGES?SENSORSOHDB
            CODE    67C5H     00ABH     UNIT         ?PR?_DISABLEPRINTINGCIRCUITRYTASK?MSGDECODEOHDB
            CODE    6870H     00ABH     UNIT         ?PR?_RESETDRIVERSTATETASK?MSGDECODEOHDB
            CODE    691BH     00A6H     UNIT         ?PR?_FANSACTIVATIONTASK?ACTUATORSOHDB
            CODE    69C1H     00A2H     UNIT         ?PR?_POTENTIOMETERWRITETASK?MSGDECODEOHDB
            CODE    6A63H     009DH     UNIT         ?PR?_GETHARDWAREVERSIONTASK?MSGDECODEOHDB
            CODE    6B00H     009BH     UNIT         ?PR?GETNORMALIZEDBLOCKHEATERSAVERAGE?HEATERCONTROL
            CODE    6B9BH     009BH     UNIT         ?PR?_OHDBPOTENMTRWRITEVALUE?POTENTIOMETEROHDB
            CODE    6C36H     009AH     UNIT         ?PR?SPIA2D_GETVALUESBYSPI?SPI_A2D
            CODE    6CD0H     009AH     UNIT         ?PR?EXP?EXP
            CODE    6D6AH     0099H     UNIT         ?PR?_SETROLLERSPEEDTASK?MSGDECODEOHDB
            CODE    6E03H     0091H     UNIT         ?PR?_INSERTBYTE?RINGBUFF
            CODE    6E94H     0090H     UNIT         ?PR?_SPIA2D_TASK?SPI_A2D
            CODE    6F24H     008FH     UNIT         ?PR?_HEADDATA_SETHEADDATATASKPARAMS?HEADDATA
            CODE    6FB3H     008FH     UNIT         ?PR?_SENSORS_GETMATERIALLEVELSENSORS?SENSORSOHDB
            CODE    7042H     008EH     UNIT         ?PR?_SPIA2D_GETBLOCKREADINGS?SPI_A2D
            CODE    70D0H     008EH     UNIT         ?PR?_TEMEPARTUREERRNOTIFCATIONTASK?HEATERCONTROL
            CODE    715EH     008CH     UNIT         ?PR?_XILINXREAD?XILINXINTERFACE
            CODE    71EAH     008CH     UNIT         ?PR?A2D0_ISR?A2D
            CODE    7276H     008CH     UNIT         ?C_C51STARTUP
            CODE    7302H     0087H     UNIT         ?PR?_GETMSGPTRBYHANDLE?RINGBUFF
            CODE    7389H     0087H     UNIT         ?PR?UART0ISR?UARTDRV
            CODE    7410H     0087H     UNIT         ?PR?_XILINXWRITETASK?MSGDECODEOHDB
            CODE    7497H     0087H     UNIT         ?PR?SPIEXTA2D_SENDREQUEST?SPIEXTA2D
            CODE    751EH     0086H     UNIT         ?PR?SPIA2D_GETSWVERSIONBYSPI?SPI_A2D
            CODE    75A4H     0085H     UNIT         ?PR?_HEATERSETHEATERSTATE?HEATERCONTROL
            CODE    7629H     0085H     UNIT         ?PR?_E2PROMGETRECEIVEDDATA?E2PROMINTERFACE
            CODE    76AEH     0082H     UNIT         ?PR?PRINTDRV_INIT?PRINTDRIVER
            CODE    7730H     0082H     UNIT         ?PR?_OHDBGETA2DREADINGSTASK?MSGDECODEOHDB
            CODE    77B2H     0080H     UNIT         ?PR?_OHDBMESSAGEDECODETASK?MSGDECODEOHDB
            CODE    7832H     0080H     UNIT         ?PR?_ISHEADTEMPOKTASK?MSGDECODEOHDB
            CODE    78B2H     007FH     UNIT         ?PR?_REMOVEMSG?RINGBUFF
            CODE    7931H     007CH     UNIT         ?PR?_GETHEATERSSTATUSTASK?MSGDECODEOHDB
            CODE    79ADH     007CH     UNIT         ?PR?_GETHEATERSSTANDBYTEMPTASK?MSGDECODEOHDB
            CODE    7A29H     007CH     UNIT         ?PR?_GETMATERIALLEVELTASK?MSGDECODEOHDB
            CODE    7AA5H     007CH     UNIT         ?PR?_GETPRINTINGHEADVOLTAGETASK?MSGDECODEOHDB
            CODE    7B21H     007CH     UNIT         ?PR?_GETPOWERSUPPLIESTASK?MSGDECODEOHDB
BL51 BANKED LINKER/LOCATER V6.22                                                      04/28/2015  17:26:03  PAGE 9


            CODE    7B9DH     007AH     UNIT         ?PR?_A2D0READER_GETBLOCKREADINGS?HEADSVOLTAGEREADER
            CODE    7C17H     0078H     UNIT         ?PR?_HEADDATA_GETHEADDATA?HEADDATA
            CODE    7C8FH     0078H     UNIT         ?PR?_HEATERSETSTANDBYTEMPERATURES?HEATERCONTROL
            CODE    7D07H     0078H     UNIT         ?PR?_SETMATERIALCOOLINGFANSONOFF?ACTUATORSOHDB
            CODE    7D7FH     0076H     UNIT         ?PR?_MARKMSGASREADY?RINGBUFF
            CODE    7DF5H     0074H     UNIT         ?PR?_SWAPUNSIGNEDSHORT?BYTEORDER
            CODE    7E69H     0073H     UNIT         ?PR?_SPISEND?SPIDRV
            CODE    7EDCH     0072H     UNIT         ?PR?_E2PROMWRITEENABLE?E2PROMINTERFACE
            CODE    7F4EH     0071H     UNIT         ?PR?AREPERIMETERHEATERSREACHEDSETPOINT?HEATERCONTROL
            CODE    7FBFH     0070H     UNIT         ?PR?_MSGRINGBUFFINIT?RINGBUFF
            CODE    802FH     006DH     UNIT         ?PR?_PRINTDRV_SETFIREALLPARAMS?PRINTDRIVER
            CODE    809CH     006CH     UNIT         ?PR?_SCHEDULERINSTALLTASK?MINISCHEDULER
            CODE    8108H     006AH     UNIT         ?PR?_OHDBGETA2DSWVERSIONTASK?MSGDECODEOHDB
            CODE    8172H     0064H     UNIT         ?PR?_UTILS_CALCULATECHECKSUM?UTILS
            CODE    81D6H     005FH     UNIT         ?PR?_HEATERGETCURRENTTEMPERATURES?HEATERCONTROL
            CODE    8235H     005FH     UNIT         ?PR?_HEATERSACTIVATIONTASK?HEATERCONTROL
            CODE    8294H     005EH     UNIT         ?PR?_XILINXGETRECEIVEDDATA?XILINXINTERFACE
            CODE    82F2H     005DH     UNIT         ?PR?_DIFFTIME?TIMERDRV
            CODE    834FH     005BH     UNIT         ?PR?_XILINXWATCHDOGTASK?WATCHDOG
            CODE    83AAH     0058H     UNIT         ?PR?_GETAMBIENTTEMPTASK?MSGDECODEOHDB
            CODE    8402H     0057H     UNIT         ?PR?_SENSORS_SETHEADSVACUUMPARAMS?SENSORSOHDB
            CODE    8459H     0056H     UNIT         ?PR?_GETAVAILABLEMSGHANDLE?RINGBUFF
            CODE    84AFH     0056H     UNIT         ?PR?_TIMERHASTIMEOUTEXPIRED?TIMERDRV
            CODE    8505H     0056H     UNIT         ?PR?_GETVACUUMSENSORTASK?MSGDECODEOHDB
            CODE    855BH     0054H     UNIT         ?PR?_GETFIREALLSTATUSTASK?MSGDECODEOHDB
            CODE    85AFH     0050H     UNIT         ?PR?_GETSOFTWAREVERSIONTASK?MSGDECODEOHDB
            CODE    85FFH     0050H     UNIT         ?PR?_SETHEADDATANACKTASK?MSGDECODEOHDB
            CODE    864FH     004FH     UNIT         ?PR?SPIA2D_INIT?SPI_A2D
            CODE    869EH     004FH     UNIT         ?PR?ARERETRIESNEEDED_GETSWVER?SPI_A2D
            CODE    86EDH     004FH     UNIT         ?PR?_SETHEATERSSTANDBYTEMPTASK?MSGDECODEOHDB
            CODE    873CH     004FH     UNIT         ?PR?_SETBUMPERPARAMSTASK?MSGDECODEOHDB
            CODE    878BH     004FH     UNIT         ?PR?_SETHEATERSTEMPTASK?MSGDECODEOHDB
            CODE    87DAH     004FH     UNIT         ?PR?_SETHEATERSONOFFTASK?MSGDECODEOHDB
            CODE    8829H     004FH     UNIT         ?PR?_SETHEADSVACUUMTASK?MSGDECODEOHDB
            CODE    8878H     004FH     UNIT         ?PR?_SETMATERIALCOOLINGFANSTASK?MSGDECODEOHDB
            CODE    88C7H     004FH     UNIT         ?PR?_SETDEBUGMODETASK?MSGDECODEOHDB
            CODE    8916H     004FH     UNIT         ?PR?_SETBUMPERIMPACTONOFFTASK?MSGDECODEOHDB
            CODE    8965H     004CH     UNIT         ?PR?_SWAPSHORTARRAY?BYTEORDER
            CODE    89B1H     004CH     UNIT         ?PR?_SWAPLONGARRAY?BYTEORDER
            CODE    89FDH     004CH     UNIT         ?PR?_ISHEADSVACUUMOKTASK?MSGDECODEOHDB
            CODE    8A49H     0048H     UNIT         ?PR?_EDENPROTOCOLDECODETASK?EDENPROTOCOLOHDB
            CODE    8A91H     0047H     UNIT         ?PR?_TIMERSETTIMEOUT?TIMERDRV
            CODE    8AD8H     0047H     UNIT         ?PR?_SPIEXTA2D_TASK?SPIEXTA2D
            CODE    8B1FH     0046H     UNIT         ?PR?SPIA2D_GETVALUESCMDSTATUS?SPI_A2D
            CODE    8B65H     0046H     UNIT         ?PR?_BUMPER_SETPARAMETERS?BUMPER
            CODE    8BABH     0044H     UNIT         ?PR?_SETROLLEROFFTASK?WATCHDOG
            CODE    8BEFH     0044H     UNIT         ?PR?_OHDBPINGTASK?MSGDECODEOHDB
            CODE    8C33H     0044H     UNIT         ?C?LDIV
            CODE    8C77H     0042H     UNIT         ?PR?_ROLLER_SETONOFF?ROLLER
            CODE    8CB9H     0041H     UNIT         ?PR?_SPIA2D_GETREADING?SPI_A2D
            CODE    8CFAH     0041H     UNIT         ?PR?BUMPER_INIT?BUMPER
            CODE    8D3BH     0041H     UNIT         ?PR?SENSORS_ISHEADSVACUUMOK?SENSORSOHDB
            CODE    8D7CH     0040H     UNIT         ?PR?_GETREADYMSGHANDLE?RINGBUFF
            CODE    8DBCH     003FH     UNIT         ?PR?_ROLLER_ENABLEDRIVER?ROLLER
            CODE    8DFBH     003FH     UNIT         ?PR?_BUMPER_SETONOFF?BUMPER
            CODE    8E3AH     003FH     UNIT         ?PR?INITCOOLINGFANS?ACTUATORSOHDB
            CODE    8E79H     003DH     UNIT         ?PR?_SCHEDULERRESUMETASK?MINISCHEDULER
BL51 BANKED LINKER/LOCATER V6.22                                                      04/28/2015  17:26:03  PAGE 10


            CODE    8EB6H     003DH     UNIT         ?PR?_A2D2_GETREADING?A2D
            CODE    8EF3H     003CH     UNIT         ?PR?_SCHEDULERSUSPENDTASK?MINISCHEDULER
            CODE    8F2FH     003BH     UNIT         ?PR?SYSCLKINIT?TIMERDRV
            CODE    8F6AH     003BH     UNIT         ?PR?SPIA2D_GETVERSIONCMDSTATUS?SPI_A2D
            CODE    8FA5H     003AH     UNIT         ?PR?_ROLLER_ISGETOPERATIONDONE?ROLLER
            CODE    8FDFH     003AH     UNIT         ?PR?_SPIA2D_GETSW_VERSION?SPI_A2D
            CODE    9019H     003AH     UNIT         ?PR?_PRINTDRV_WRITETOREGISTER?PRINTDRIVER
            CODE    9053H     003AH     UNIT         ?PR?_PRINTDRV_ISGETOPERATIONDONE?PRINTDRIVER
            CODE    908DH     0039H     UNIT         ?PR?_SPISELECTSLAVE?SPIDRV
            CODE    90C6H     0039H     UNIT         ?PR?_PRINTDRV_ENABLEDISABLEBUMPERPEG?PRINTDRIVER
            CODE    90FFH     0038H     UNIT         ?PR?_SCHEDULERLEAVETASK?MINISCHEDULER
            CODE    9137H     0036H     UNIT         ?PR?_HEATERGETSTANDBYTEMPERATURES?HEATERCONTROL
            CODE    916DH     0035H     UNIT         ?PR?A2D2_ISR?A2D
            CODE    91A2H     0034H     UNIT         ?PR?SENDWAKEUPNOTIFICATION?OHDBMAIN
            CODE    91D6H     0034H     UNIT         ?PR?UART0INIT?UARTDRV
            CODE    920AH     0034H     UNIT         ?PR?A2D0_INIT?A2D
            CODE    923EH     0032H     UNIT         ?PR?_A2D0_GETREADING?A2D
            CODE    9270H     0031H     UNIT         ?PR?_ROLLER_SETSPEED?ROLLER
            CODE    92A1H     0031H     UNIT         ?PR?_PRINTDRV_SETSTARTPEG?PRINTDRIVER
            CODE    92D2H     0031H     UNIT         ?PR?_PRINTDRV_SETENDPEG?PRINTDRIVER
            CODE    9303H     0031H     UNIT         ?PR?_PRINTDRV_SETNUMOFFIRES?PRINTDRIVER
            CODE    9334H     0031H     UNIT         ?PR?_PRINTDRV_SETDIAGNOSTICS?PRINTDRIVER
            CODE    9365H     0031H     UNIT         ?PR?_PRINTDRV_SETBUMPERENDPEG?PRINTDRIVER
            CODE    9396H     0031H     UNIT         ?PR?_PRINTDRV_SETBUMPERSTARTPEG?PRINTDRIVER
            CODE    93C7H     002FH     UNIT         ?PR?A2D2_INIT?A2D
            CODE    93F6H     002EH     UNIT         ?PR?_HEATERSETTEMPERATURE?HEATERCONTROL
            CODE    9424H     002EH     UNIT         ?PR?_PRINTDRV_ISSETVOLTAGEDONE?PRINTDRIVER
            CODE    9452H     002EH     UNIT         ?PR?_E2PROMGETWRITESTATUS?E2PROMINTERFACE
            CODE    9480H     002EH     UNIT         ?PR?_ENABLEDISABLECOMMLOSSTASK?WATCHDOG
            CODE    94AEH     002DH     UNIT         ?PR?_PRINTDRV_SETCOMMDIRECTION?PRINTDRIVER
            CODE    94DBH     002CH     UNIT         ?PR?_D2A0_WRITE?D2A
            CODE    9507H     002CH     UNIT         ?PR?_D2A1_WRITE?D2A
            CODE    9533H     002BH     UNIT         ?PR?A2D2_SELECTNEXTINPUT?A2D
            CODE    955EH     0028H     UNIT         ?PR?XBR_INIT?OHDBMAIN
            CODE    9586H     0028H     UNIT         ?PR?SPIA2D_GETFREEBUFFER?SPI_A2D
            CODE    95AEH     0028H     UNIT         ?PR?HEADDATA_INIT?HEADDATA
            CODE    95D6H     0028H     UNIT         ?PR?_OHDBPOTENMTRGETWRITESTATUS?POTENTIOMETEROHDB
            CODE    95FEH     0028H     UNIT         ?PR?HEADSVOLTAGEREADERINIT?HEADSVOLTAGEREADER
            CODE    9626H     0028H     UNIT         ?PR?SPIEXTA2D_GETFREEBUFFER?SPIEXTA2D
            CODE    964EH     0027H     UNIT         ?PR?_TIMERDELAY?TIMERDRV
            CODE    9675H     0027H     UNIT         ?PR?EDENPROTOCOLINIT?EDENPROTOCOLOHDB
            CODE    969CH     0024H     UNIT         ?PR?A2D0_SELECTNEXTINPUT?A2D
            CODE    96C0H     0024H     UNIT         ?PR?PRINTDRV_ISSETOPERATIONDONE?PRINTDRIVER
            CODE    96E4H     0023H     UNIT         ?PR?_GETREADYMSGSNUMBER?RINGBUFF
            CODE    9707H     0023H     UNIT         ?PR?_XILINXCALLBACK?XILINXINTERFACE
            CODE    972AH     0023H     UNIT         ?PR?TIMER_0_ISR?TIMERDRV
            CODE    974DH     0023H     UNIT         ?PR?_SPIA2D_CALLBACK?SPI_A2D
            CODE    9770H     0023H     UNIT         ?PR?_E2PROMCALLBACK?E2PROMINTERFACE
            CODE    9793H     0023H     UNIT         ?PR?COMMUNICATIONLOSSTASKINIT?WATCHDOG
            CODE    97B6H     0023H     UNIT         ?PR?_OHDBPOTENMTRCALLBACK?POTENTIOMETEROHDB
            CODE    97D9H     0023H     UNIT         ?PR?_SPIEXTA2D_CALLBACK?SPIEXTA2D
            CODE    97FCH     0022H     UNIT         ?PR?PRINTDRV_RESETDRIVER?PRINTDRIVER
            CODE    981EH     0022H     UNIT         ?PR?PRINTDRV_RESETSTATEMACHINE?PRINTDRIVER
            CODE    9840H     0022H     UNIT         ?PR?PRINTDRV_ENABLEPRINTINGCIRCUITRY?PRINTDRIVER
            CODE    9862H     0022H     UNIT         ?PR?_SENSORS_GETVACUUMSENSOR?SENSORSOHDB
            CODE    9884H     0021H     UNIT         ?PR?_RINGBUFFGETELEMENTCOUNT?RINGBUFF
            CODE    98A5H     0021H     UNIT         ?PR?PRINTDRV_DISBLEPRINTINGCIRCUITRY?PRINTDRIVER
BL51 BANKED LINKER/LOCATER V6.22                                                      04/28/2015  17:26:03  PAGE 11


            CODE    98C6H     0020H     UNIT         ?PR?_PRINTDRV_SETHEADVOLTAGE?PRINTDRIVER
            CODE    98E6H     001FH     UNIT         ?PR?_HEATERSETTASKSHANDLES?HEATERCONTROL
            CODE    9905H     001FH     UNIT         ?PR?SPIEXTA2D_INIT?SPIEXTA2D
            CODE    9924H     001EH     UNIT         ?PR?XILINXGETWRITEACTIONSTATUS?XILINXINTERFACE
            CODE    9942H     001EH     UNIT         ?PR?TIMER_2_INIT?TIMERDRV
            CODE    9960H     001EH     UNIT         ?PR?TIMER_0_INIT?TIMERDRV
            CODE    997EH     001EH     UNIT         ?PR?_HEATERCONTROLSETONOFF?HEATERCONTROL
            CODE    999CH     001EH     UNIT         ?PR?_A2D0READER_GETHEADSVOLTAGES?HEADSVOLTAGEREADER
            CODE    99BAH     001DH     UNIT         ?PR?TIMER0GETTIMERCOUNTER?TIMERDRV
            CODE    99D7H     001DH     UNIT         ?PR?SPIINIT?SPIDRV
            CODE    99F4H     001DH     UNIT         ?PR?_COMMUNICATIONLOSSTASK?WATCHDOG
            CODE    9A11H     001CH     UNIT         ?PR?_SCHEDULERGETTASKSTATE?MINISCHEDULER
            CODE    9A2DH     001CH     UNIT         ?PR?_SCHEDULERGETTASKARG?MINISCHEDULER
            CODE    9A49H     001CH     UNIT         ?PR?_A2D0READER_GETREADING?HEADSVOLTAGEREADER
            CODE    9A65H     001CH     UNIT         ?PR?_SPIEXTA2D_GETREADING?SPIEXTA2D
            CODE    9A81H     001BH     UNIT         ?PR?TURNHEATERSONOFF?HEATERCONTROL
            CODE    9A9CH     001AH     UNIT         ?PR?_SWAPSHORT?BYTEORDER
            CODE    9AB6H     001AH     UNIT         ?PR?_SWAPLONG?BYTEORDER
            CODE    9AD0H     0019H     UNIT         ?PR?TIMER_4_INIT?TIMERDRV
            CODE    9AE9H     0019H     UNIT         ?PR?BUMPER0ISR?BUMPER
            CODE    9B02H     0019H     UNIT         ?PR?BUMPER1ISR?BUMPER
            CODE    9B1BH     0018H     UNIT         ?PR?TIMER_1_INIT?TIMERDRV
            CODE    9B33H     0016H     UNIT         ?PR?COMPARATOR0_INIT?COMPARATOR
            CODE    9B49H     0016H     UNIT         ?PR?COMPARATOR1_INIT?COMPARATOR
            CODE    9B5FH     0015H     UNIT         ?PR?RESETCOMMUNICATIONTIMEOUT?WATCHDOG
            CODE    9B74H     0013H     UNIT         ?PR?HEATERTURNALLHEADHEATEROFF?HEATERCONTROL
            CODE    9B87H     0010H     UNIT         ?PR?_SPISETCOMMWITHA2D?SPIDRV
            CODE    9B97H     0010H     UNIT         ?PR?D2A0_INIT?D2A
            CODE    9BA7H     0010H     UNIT         ?PR?D2A1_INIT?D2A
            CODE    9BB7H     000FH     UNIT         ?PR?XILINXWATCHDOGINIT?WATCHDOG
            CODE    9BC6H     000EH     UNIT         ?PR?ROLLER_GETSPEED?ROLLER
            CODE    9BD4H     000EH     UNIT         ?PR?ROLLER_ISSETOPERATIONDONE?ROLLER
            CODE    9BE2H     000EH     UNIT         ?PR?PRINTDRV_GETHEADPOSITION?PRINTDRIVER
            CODE    9BF0H     000CH     UNIT         ?PR?_ABS?ABS
            CODE    9BFCH     000BH     UNIT         ?PR?XILINXINIT?XILINXINTERFACE
            CODE    9C07H     000BH     UNIT         ?PR?SPILOCK?SPIDRV
            CODE    9C12H     000AH     UNIT         ?PR?A2D_INIT?A2D
            CODE    9C1CH     0007H     UNIT         ?PR?GETTIMERSTRUCTPTR?TIMERDRV
            CODE    9C23H     0007H     UNIT         ?PR?UARTGETRECEIVEBUFFER?UARTDRV
            CODE    9C2AH     0007H     UNIT         ?PR?SPIGETTXBUFFER?SPIDRV
            CODE    9C31H     0007H     UNIT         ?PR?OHDBPOTENMTRINIT?POTENTIOMETEROHDB
            CODE    9C38H     0007H     UNIT         ?PR?OHDBEDENPROTOCOLGETMSGBUFF?EDENPROTOCOLOHDB
            CODE    9C3FH     0006H     UNIT         ?PR?ROLLER_ISON?ROLLER
            CODE    9C45H     0006H     UNIT         ?PR?GETA2D0SELECTEDINPUT?A2D
            CODE    9C4BH     0006H     UNIT         ?PR?SPIA2D_ISDATAVALID?SPI_A2D
            CODE    9C51H     0006H     UNIT         ?PR?HEADDATA_GETHEADDATATASKHANDLE?HEADDATA
            CODE    9C57H     0006H     UNIT         ?PR?PRINTDRV_GETFIREALLSTATUS?PRINTDRIVER
            CODE    9C5DH     0006H     UNIT         ?PR?PRINTDRV_GETFIREALLCOUNTER?PRINTDRIVER
            CODE    9C63H     0006H     UNIT         ?PR?GETXILINXWATCHDOGTASKHANDLE?WATCHDOG
            CODE    9C69H     0006H     UNIT         ?PR?SENSORS_GETAMBIENTTEMPSENSOR?SENSORSOHDB



OVERLAY MAP OF MODULE:   .\Temp\OHDB2 (RINGBUFF)


SEGMENT                                             BIT_GROUP          XDATA_GROUP
BL51 BANKED LINKER/LOCATER V6.22                                                      04/28/2015  17:26:03  PAGE 12


  +--> CALLED SEGMENT                            START    LENGTH     START    LENGTH
------------------------------------------------------------------------------------
?PR?UART0ISR?UARTDRV                             -----    -----      -----    -----
  +--> ?PR?_RINGBUFFINSERT?RINGBUFF

*** NEW ROOT ***************************************************

?PR?A2D2_ISR?A2D                                 -----    -----      -----    -----
  +--> ?PR?A2D2_SELECTNEXTINPUT?A2D

*** NEW ROOT ***************************************************

?C_C51STARTUP                                    -----    -----      -----    -----
  +--> ?PR?MAIN?OHDBMAIN
  +--> ?C_INITSEG

?PR?MAIN?OHDBMAIN                                -----    -----      -----    -----
  +--> ?PR?XBR_INIT?OHDBMAIN
  +--> ?PR?SYSCLKINIT?TIMERDRV
  +--> ?PR?UART0INIT?UARTDRV
  +--> ?PR?TIMER_0_INIT?TIMERDRV
  +--> ?PR?SCHEDULERINIT?MINISCHEDULER
  +--> ?PR?INITCOOLINGFANS?ACTUATORSOHDB
  +--> ?PR?XILINXWATCHDOGINIT?WATCHDOG
  +--> ?PR?SPIA2D_INIT?SPI_A2D
  +--> ?PR?SPIEXTA2D_INIT?SPIEXTA2D
  +--> ?PR?A2D_INIT?A2D
  +--> ?PR?SPIINIT?SPIDRV
  +--> ?PR?E2PROMINIT?E2PROMINTERFACE
  +--> ?PR?XILINXINIT?XILINXINTERFACE
  +--> ?PR?OHDBPOTENMTRINIT?POTENTIOMETEROHDB
  +--> ?PR?ROLLER_INIT?ROLLER
  +--> ?PR?BUMPER_INIT?BUMPER
  +--> ?PR?COMMUNICATIONLOSSTASKINIT?WATCHDOG
  +--> ?PR?EDENPROTOCOLINIT?EDENPROTOCOLOHDB
  +--> ?PR?MESSAGEDECODEINITOHDB?MSGDECODEOHDB
  +--> ?PR?HEADDATA_INIT?HEADDATA
  +--> ?PR?HEADSVOLTAGEREADERINIT?HEADSVOLTA...
  +--> ?PR?HEATERCONTROLINIT?HEATERCONTROL
  +--> ?PR?PRINTDRV_INIT?PRINTDRIVER
  +--> ?PR?SENDWAKEUPNOTIFICATION?OHDBMAIN
  +--> ?PR?HEADDATA_READDATAFROMALLE2PROMS?H...
  +--> ?PR?_SPIA2D_TASK?SPI_A2D
  +--> ?PR?_SCHEDULERINSTALLTASK?MINISCHEDULER
  +--> ?PR?_SPIEXTA2D_TASK?SPIEXTA2D
  +--> ?PR?_EDENPROTOCOLDECODETASK?EDENPROTO...
  +--> ?PR?_OHDBMESSAGEDECODETASK?MSGDECODEOHDB
  +--> ?PR?_HEATERSTATUSTASK?HEATERCONTROL
  +--> ?PR?_HEATERCONTROLTASK?HEATERCONTROL
  +--> ?PR?_HEATERSETTASKSHANDLES?HEATERCONTROL
  +--> ?PR?GETXILINXWATCHDOGTASKHANDLE?WATCHDOG
  +--> ?PR?_SCHEDULERRESUMETASK?MINISCHEDULER
  +--> ?PR?SCHEDULERRUN?MINISCHEDULER

?PR?UART0INIT?UARTDRV                            -----    -----      -----    -----
  +--> ?PR?TIMER_4_INIT?TIMERDRV

BL51 BANKED LINKER/LOCATER V6.22                                                      04/28/2015  17:26:03  PAGE 13


?PR?INITCOOLINGFANS?ACTUATORSOHDB                -----    -----      -----    -----
  +--> ?PR?_FANSACTIVATIONTASK?ACTUATORSOHDB
  +--> ?PR?_SCHEDULERINSTALLTASK?MINISCHEDULER

?PR?_FANSACTIVATIONTASK?ACTUATORSOHDB            -----    -----      -----    -----
  +--> ?PR?_XILINXWRITE?XILINXINTERFACE
  +--> ?PR?_SCHEDULERLEAVETASK?MINISCHEDULER
  +--> ?PR?XILINXGETWRITEACTIONSTATUS?XILINX...
  +--> ?PR?_SCHEDULERSUSPENDTASK?MINISCHEDULER

?PR?_XILINXWRITE?XILINXINTERFACE                 -----    -----      -----    -----
  +--> ?PR?SPILOCK?SPIDRV
  +--> ?PR?_SPISELECTSLAVE?SPIDRV
  +--> ?PR?SPIGETTXBUFFER?SPIDRV
  +--> ?PR?_XILINXCALLBACK?XILINXINTERFACE
  +--> ?PR?_SPISEND?SPIDRV

?PR?XILINXGETWRITEACTIONSTATUS?XILINX...         -----    -----      -----    -----
  +--> ?PR?_SPISELECTSLAVE?SPIDRV
  +--> ?PR?SPIUNLOCK?SPIDRV

?PR?XILINXWATCHDOGINIT?WATCHDOG                  -----    -----      -----    -----
  +--> ?PR?_XILINXWATCHDOGTASK?WATCHDOG
  +--> ?PR?_SCHEDULERINSTALLTASK?MINISCHEDULER

?PR?_XILINXWATCHDOGTASK?WATCHDOG                 -----    -----      -----    -----
  +--> ?PR?_XILINXWRITE?XILINXINTERFACE
  +--> ?PR?_SCHEDULERLEAVETASK?MINISCHEDULER
  +--> ?PR?XILINXGETWRITEACTIONSTATUS?XILINX...
  +--> ?PR?_SCHEDULERTASKSLEEP?MINISCHEDULER

?PR?_SCHEDULERTASKSLEEP?MINISCHEDULER            -----    -----      -----    -----
  +--> ?PR?_TIMERSETTIMEOUT?TIMERDRV

?PR?_TIMERSETTIMEOUT?TIMERDRV                    -----    -----      -----    -----
  +--> ?PR?TIMER0GETTIMERCOUNTER?TIMERDRV

?PR?A2D_INIT?A2D                                 -----    -----      -----    -----
  +--> ?PR?TIMER_2_INIT?TIMERDRV
  +--> ?PR?A2D0_INIT?A2D
  +--> ?PR?A2D2_INIT?A2D

?PR?BUMPER_INIT?BUMPER                           -----    -----      -----    -----
  +--> ?PR?D2A0_INIT?D2A
  +--> ?PR?D2A1_INIT?D2A
  +--> ?PR?COMPARATOR0_INIT?COMPARATOR
  +--> ?PR?COMPARATOR1_INIT?COMPARATOR
  +--> ?PR?_BUMPER_IMPACTDETECTIONTASK?BUMPER
  +--> ?PR?_SCHEDULERINSTALLTASK?MINISCHEDULER

?PR?_BUMPER_IMPACTDETECTIONTASK?BUMPER           -----    -----      -----    -----
  +--> ?PR?DISABLEBUMPERINTERRUPT?BUMPER
  +--> ?PR?ENABLEBUMPERINTERRUPT?BUMPER
  +--> ?PR?_SCHEDULERLEAVETASK?MINISCHEDULER
  +--> ?PR?_OHDBEDENPROTOCOLSEND?EDENPROTOCO...
  +--> ?PR?_SCHEDULERTASKSLEEP?MINISCHEDULER

BL51 BANKED LINKER/LOCATER V6.22                                                      04/28/2015  17:26:03  PAGE 14


?PR?_OHDBEDENPROTOCOLSEND?EDENPROTOCO...         -----    -----      -----    -----
  +--> ?PR?_UARTSEND?UARTDRV

?PR?COMMUNICATIONLOSSTASKINIT?WATCHDOG           -----    -----      -----    -----
  +--> ?PR?_COMMUNICATIONLOSSTASK?WATCHDOG
  +--> ?PR?_SCHEDULERINSTALLTASK?MINISCHEDULER
  +--> ?PR?_SETROLLEROFFTASK?WATCHDOG

?PR?_COMMUNICATIONLOSSTASK?WATCHDOG              -----    -----      -----    -----
  +--> ?PR?HEATERTURNALLHEADHEATEROFF?HEATER...
  +--> ?PR?_HEATERCONTROLSETONOFF?HEATERCONTROL
  +--> ?PR?_SCHEDULERRESUMETASK?MINISCHEDULER
  +--> ?PR?_SCHEDULERSUSPENDTASK?MINISCHEDULER

?PR?HEATERTURNALLHEADHEATEROFF?HEATER...         -----    -----      -----    -----
  +--> ?PR?_SCHEDULERRESUMETASK?MINISCHEDULER

?PR?_SETROLLEROFFTASK?WATCHDOG                   -----    -----      -----    -----
  +--> ?PR?_ROLLER_SETONOFF?ROLLER
  +--> ?PR?_SCHEDULERLEAVETASK?MINISCHEDULER
  +--> ?PR?ROLLER_ISSETOPERATIONDONE?ROLLER
  +--> ?PR?_SCHEDULERSUSPENDTASK?MINISCHEDULER

?PR?_ROLLER_SETONOFF?ROLLER                      -----    -----      -----    -----
  +--> ?PR?_XILINXWRITE?XILINXINTERFACE

?PR?ROLLER_ISSETOPERATIONDONE?ROLLER             -----    -----      -----    -----
  +--> ?PR?XILINXGETWRITEACTIONSTATUS?XILINX...

?PR?EDENPROTOCOLINIT?EDENPROTOCOLOHDB            -----    -----      -----    -----
  +--> ?PR?UARTGETRECEIVEBUFFER?UARTDRV
  +--> ?PR?_RINGBUFFINIT?RINGBUFF

?PR?MESSAGEDECODEINITOHDB?MSGDECODEOHDB          -----    -----      -----    -----
  +--> ?PR?OHDBEDENPROTOCOLGETMSGBUFF?EDENPR...
  +--> ?PR?_MSGRINGBUFFINIT?RINGBUFF
  +--> ?PR?_ISHEADTEMPOKTASK?MSGDECODEOHDB
  +--> ?PR?_SCHEDULERINSTALLTASK?MINISCHEDULER
  +--> ?PR?_XILINXWRITETASK?MSGDECODEOHDB
  +--> ?PR?_POTENTIOMETERWRITETASK?MSGDECODE...
  +--> ?PR?_E2PROMWRITETASK?MSGDECODEOHDB
  +--> ?PR?_E2PROMREADTASK?MSGDECODEOHDB
  +--> ?PR?_XILINXREADTASK?MSGDECODEOHDB
  +--> ?PR?_OHDBGETA2DREADINGSTASK?MSGDECODE...
  +--> ?PR?_SETROLLERONOFFTASK?MSGDECODEOHDB
  +--> ?PR?_SETROLLERSPEEDTASK?MSGDECODEOHDB
  +--> ?PR?_GETROLLERSTATUSTASK?MSGDECODEOHDB
  +--> ?PR?_SETPRINTINGHEADSPARAMSTASK?MSGDE...
  +--> ?PR?_SETPRINTINGPASSPARAMSTASK?MSGDEC...
  +--> ?PR?_ENABLEPRINTINGCIRCUITRYTASK?MSGD...
  +--> ?PR?_DISABLEPRINTINGCIRCUITRYTASK?MSG...
  +--> ?PR?_GETHEATERSSTATUSTASK?MSGDECODEOHDB
  +--> ?PR?_SETHEATERSSTANDBYTEMPTASK?MSGDEC...
  +--> ?PR?_GETHEATERSSTANDBYTEMPTASK?MSGDEC...
  +--> ?PR?_SETBUMPERPARAMSTASK?MSGDECODEOHDB
  +--> ?PR?_SETHEATERSTEMPTASK?MSGDECODEOHDB
  +--> ?PR?_SETHEATERSONOFFTASK?MSGDECODEOHDB
BL51 BANKED LINKER/LOCATER V6.22                                                      04/28/2015  17:26:03  PAGE 15


  +--> ?PR?_GETMATERIALLEVELTASK?MSGDECODEOHDB
  +--> ?PR?_ISHEADSVACUUMOKTASK?MSGDECODEOHDB
  +--> ?PR?_GETVACUUMSENSORTASK?MSGDECODEOHDB
  +--> ?PR?_GETAMBIENTTEMPTASK?MSGDECODEOHDB
  +--> ?PR?_SETHEADSVACUUMTASK?MSGDECODEOHDB
  +--> ?PR?_RESETDRIVERCIRCUITTASK?MSGDECODE...
  +--> ?PR?_RESETDRIVERSTATETASK?MSGDECODEOHDB
  +--> ?PR?_APPLYDEFAULTPARAMSTASK?MSGDECODE...
  +--> ?PR?_PRINTDRV_FIREALLTASK?PRINTDRIVER
  +--> ?PR?_GETSOFTWAREVERSIONTASK?MSGDECODE...
  +--> ?PR?_OHDBGETA2DSWVERSIONTASK?MSGDECOD...
  +--> ?PR?_GETHARDWAREVERSIONTASK?MSGDECODE...
  +--> ?PR?_OHDBPINGTASK?MSGDECODEOHDB
  +--> ?PR?_SETPRINTINGHEADVOLTAGETASK?MSGDE...
  +--> ?PR?_GETPRINTINGHEADVOLTAGETASK?MSGDE...
  +--> ?PR?_GETPOWERSUPPLIESTASK?MSGDECODEOHDB
  +--> ?PR?_GETHEADDATATASK?MSGDECODEOHDB
  +--> ?PR?_SETMATERIALCOOLINGFANSTASK?MSGDE...
  +--> ?PR?_GETFIREALLSTATUSTASK?MSGDECODEOHDB
  +--> ?PR?_SETDEBUGMODETASK?MSGDECODEOHDB
  +--> ?PR?_SETHEADDATANACKTASK?MSGDECODEOHDB
  +--> ?PR?_SETBUMPERIMPACTONOFFTASK?MSGDECO...
  +--> ?PR?_SETBUMPERPEGONOFFTASK?MSGDECODEOHDB

?PR?_ISHEADTEMPOKTASK?MSGDECODEOHDB              -----    -----      -----    -----
  +--> ?PR?_HEATERISTEMPRATURESOK?HEATERCONTROL
  +--> ?PR?_OHDBEDENPROTOCOLSEND?EDENPROTOCO...
  +--> ?PR?_SCHEDULERSUSPENDTASK?MINISCHEDULER
  +--> ?PR?_SCHEDULERLEAVETASK?MINISCHEDULER

?PR?_HEATERISTEMPRATURESOK?HEATERCONTROL         -----    -----      -----    -----
  +--> ?PR?HEATERCALCULATECURRENTTEMPEATURES...

?PR?HEATERCALCULATECURRENTTEMPEATURES...         -----    -----      -----    -----
  +--> ?PR?SPIA2D_ISDATAVALID?SPI_A2D
  +--> ?PR?_SPIA2D_GETREADING?SPI_A2D
  +--> ?PR?_ABS?ABS
  +--> ?PR?_SCHEDULERGETTASKSTATE?MINISCHEDULER
  +--> ?PR?_SCHEDULERRESUMETASK?MINISCHEDULER

?PR?_XILINXWRITETASK?MSGDECODEOHDB               -----    -----      -----    -----
  +--> ?PR?_SCHEDULERLEAVETASK?MINISCHEDULER
  +--> ?PR?XILINXGETWRITEACTIONSTATUS?XILINX...
  +--> ?PR?_OHDBEDENPROTOCOLSEND?EDENPROTOCO...
  +--> ?PR?_SCHEDULERSUSPENDTASK?MINISCHEDULER

?PR?_POTENTIOMETERWRITETASK?MSGDECODE...         -----    -----      -----    -----
  +--> ?PR?_OHDBPOTENMTRWRITEVALUE?POTENTIOM...
  +--> ?PR?_SCHEDULERLEAVETASK?MINISCHEDULER
  +--> ?PR?_OHDBPOTENMTRGETWRITESTATUS?POTEN...
  +--> ?PR?_OHDBEDENPROTOCOLSEND?EDENPROTOCO...
  +--> ?PR?_SCHEDULERSUSPENDTASK?MINISCHEDULER

?PR?_OHDBPOTENMTRWRITEVALUE?POTENTIOM...         -----    -----      -----    -----
  +--> ?PR?SPILOCK?SPIDRV
  +--> ?PR?_SPISELECTSLAVE?SPIDRV
  +--> ?PR?SPIGETTXBUFFER?SPIDRV
BL51 BANKED LINKER/LOCATER V6.22                                                      04/28/2015  17:26:03  PAGE 16


  +--> ?PR?_OHDBPOTENMTRCALLBACK?POTENTIOMET...
  +--> ?PR?_SPISEND?SPIDRV

?PR?_OHDBPOTENMTRGETWRITESTATUS?POTEN...         -----    -----      -----    -----
  +--> ?PR?_SPISELECTSLAVE?SPIDRV
  +--> ?PR?SPIUNLOCK?SPIDRV

?PR?_E2PROMWRITETASK?MSGDECODEOHDB               -----    -----      -----    -----
  +--> ?PR?_E2PROMWRITEENABLE?E2PROMINTERFACE
  +--> ?PR?_SCHEDULERLEAVETASK?MINISCHEDULER
  +--> ?PR?_E2PROMGETWRITESTATUS?E2PROMINTER...
  +--> ?PR?_E2PROMWRITE?E2PROMINTERFACE
  +--> ?PR?_OHDBEDENPROTOCOLSEND?EDENPROTOCO...
  +--> ?PR?_SCHEDULERSUSPENDTASK?MINISCHEDULER

?PR?_E2PROMWRITEENABLE?E2PROMINTERFACE           -----    -----      -----    -----
  +--> ?PR?SPILOCK?SPIDRV
  +--> ?PR?SPIGETTXBUFFER?SPIDRV
  +--> ?PR?_SPISELECTSLAVE?SPIDRV
  +--> ?PR?_E2PROMCALLBACK?E2PROMINTERFACE
  +--> ?PR?_SPISEND?SPIDRV

?PR?_E2PROMGETWRITESTATUS?E2PROMINTER...         -----    -----      -----    -----
  +--> ?PR?_SPISELECTSLAVE?SPIDRV
  +--> ?PR?SPIUNLOCK?SPIDRV

?PR?_E2PROMWRITE?E2PROMINTERFACE                 -----    -----      -----    -----
  +--> ?PR?_SPISELECTSLAVE?SPIDRV
  +--> ?PR?SPIGETTXBUFFER?SPIDRV
  +--> ?PR?_E2PROMCALLBACK?E2PROMINTERFACE
  +--> ?PR?_SPISEND?SPIDRV

?PR?_E2PROMREADTASK?MSGDECODEOHDB                -----    -----      -----    -----
  +--> ?PR?_E2PROMREADBYTE?E2PROMINTERFACE
  +--> ?PR?_SCHEDULERLEAVETASK?MINISCHEDULER
  +--> ?PR?_E2PROMGETRECEIVEDDATA?E2PROMINTE...
  +--> ?PR?_SWAPUNSIGNEDSHORT?BYTEORDER
  +--> ?PR?_OHDBEDENPROTOCOLSEND?EDENPROTOCO...
  +--> ?PR?_SCHEDULERSUSPENDTASK?MINISCHEDULER

?PR?_E2PROMREADBYTE?E2PROMINTERFACE              -----    -----      -----    -----
  +--> ?PR?SPILOCK?SPIDRV
  +--> ?PR?SPIGETTXBUFFER?SPIDRV
  +--> ?PR?_SPISELECTSLAVE?SPIDRV
  +--> ?PR?_E2PROMCALLBACK?E2PROMINTERFACE
  +--> ?PR?_SPISEND?SPIDRV

?PR?_E2PROMGETRECEIVEDDATA?E2PROMINTE...         -----    -----      -----    -----
  +--> ?PR?_SPISELECTSLAVE?SPIDRV
  +--> ?PR?SPIUNLOCK?SPIDRV

?PR?_XILINXREADTASK?MSGDECODEOHDB                -----    -----      -----    -----
  +--> ?PR?_SCHEDULERLEAVETASK?MINISCHEDULER
  +--> ?PR?_XILINXGETRECEIVEDDATA?XILINXINTE...
  +--> ?PR?_SWAPUNSIGNEDSHORT?BYTEORDER
  +--> ?PR?_OHDBEDENPROTOCOLSEND?EDENPROTOCO...
  +--> ?PR?_SCHEDULERSUSPENDTASK?MINISCHEDULER
BL51 BANKED LINKER/LOCATER V6.22                                                      04/28/2015  17:26:03  PAGE 17



?PR?_XILINXGETRECEIVEDDATA?XILINXINTE...         -----    -----      -----    -----
  +--> ?PR?_SPISELECTSLAVE?SPIDRV
  +--> ?PR?SPIUNLOCK?SPIDRV

?PR?_OHDBGETA2DREADINGSTASK?MSGDECODE...         -----    -----      -----    -----
  +--> ?PR?_SPIA2D_GETBLOCKREADINGS?SPI_A2D
  +--> ?PR?_SWAPUNSIGNEDSHORTARRAY?BYTEORDER
  +--> ?PR?_OHDBEDENPROTOCOLSEND?EDENPROTOCO...
  +--> ?PR?_SCHEDULERSUSPENDTASK?MINISCHEDULER
  +--> ?PR?_SCHEDULERLEAVETASK?MINISCHEDULER

?PR?_SETROLLERONOFFTASK?MSGDECODEOHDB            -----    -----      -----    -----
  +--> ?PR?_SCHEDULERLEAVETASK?MINISCHEDULER
  +--> ?PR?_ROLLER_ENABLEDRIVER?ROLLER
  +--> ?PR?ROLLER_ISSETOPERATIONDONE?ROLLER
  +--> ?PR?_ROLLER_SETONOFF?ROLLER
  +--> ?PR?_OHDBEDENPROTOCOLSEND?EDENPROTOCO...
  +--> ?PR?_SCHEDULERSUSPENDTASK?MINISCHEDULER

?PR?_ROLLER_ENABLEDRIVER?ROLLER                  -----    -----      -----    -----
  +--> ?PR?_XILINXWRITE?XILINXINTERFACE

?PR?_SETROLLERSPEEDTASK?MSGDECODEOHDB            -----    -----      -----    -----
  +--> ?PR?_ROLLER_SETSPEED?ROLLER
  +--> ?PR?_SCHEDULERLEAVETASK?MINISCHEDULER
  +--> ?PR?ROLLER_ISSETOPERATIONDONE?ROLLER
  +--> ?PR?_OHDBEDENPROTOCOLSEND?EDENPROTOCO...
  +--> ?PR?_SCHEDULERSUSPENDTASK?MINISCHEDULER

?PR?_ROLLER_SETSPEED?ROLLER                      -----    -----      -----    -----
  +--> ?PR?_XILINXWRITE?XILINXINTERFACE

?PR?_GETROLLERSTATUSTASK?MSGDECODEOHDB           -----    -----      -----    -----
  +--> ?PR?ROLLER_GETSPEED?ROLLER
  +--> ?PR?_SCHEDULERLEAVETASK?MINISCHEDULER
  +--> ?PR?_ROLLER_ISGETOPERATIONDONE?ROLLER
  +--> ?PR?ROLLER_ISON?ROLLER
  +--> ?PR?_SWAPUNSIGNEDSHORT?BYTEORDER
  +--> ?PR?_OHDBEDENPROTOCOLSEND?EDENPROTOCO...
  +--> ?PR?_SCHEDULERSUSPENDTASK?MINISCHEDULER

?PR?ROLLER_GETSPEED?ROLLER                       -----    -----      -----    -----
  +--> ?PR?_XILINXREAD?XILINXINTERFACE

?PR?_XILINXREAD?XILINXINTERFACE                  -----    -----      -----    -----
  +--> ?PR?SPILOCK?SPIDRV
  +--> ?PR?_SPISELECTSLAVE?SPIDRV
  +--> ?PR?SPIGETTXBUFFER?SPIDRV
  +--> ?PR?_XILINXCALLBACK?XILINXINTERFACE
  +--> ?PR?_SPISEND?SPIDRV

?PR?_ROLLER_ISGETOPERATIONDONE?ROLLER            -----    -----      -----    -----
  +--> ?PR?_XILINXGETRECEIVEDDATA?XILINXINTE...

?PR?_SETPRINTINGHEADSPARAMSTASK?MSGDE...         -----    -----      -----    -----
  +--> ?PR?_PRINTDRV_WRITETOREGISTER?PRINTDR...
BL51 BANKED LINKER/LOCATER V6.22                                                      04/28/2015  17:26:03  PAGE 18


  +--> ?PR?_SCHEDULERLEAVETASK?MINISCHEDULER
  +--> ?PR?PRINTDRV_ISSETOPERATIONDONE?PRINT...
  +--> ?PR?_OHDBEDENPROTOCOLSEND?EDENPROTOCO...
  +--> ?PR?_SCHEDULERSUSPENDTASK?MINISCHEDULER

?PR?_PRINTDRV_WRITETOREGISTER?PRINTDR...         -----    -----      -----    -----
  +--> ?PR?_XILINXWRITE?XILINXINTERFACE

?PR?PRINTDRV_ISSETOPERATIONDONE?PRINT...         -----    -----      -----    -----
  +--> ?PR?XILINXGETWRITEACTIONSTATUS?XILINX...

?PR?_SETPRINTINGPASSPARAMSTASK?MSGDEC...         -----    -----      -----    -----
  +--> ?PR?_PRINTDRV_SETSTARTPEG?PRINTDRIVER
  +--> ?PR?_SCHEDULERLEAVETASK?MINISCHEDULER
  +--> ?PR?PRINTDRV_ISSETOPERATIONDONE?PRINT...
  +--> ?PR?_PRINTDRV_SETENDPEG?PRINTDRIVER
  +--> ?PR?_PRINTDRV_SETNUMOFFIRES?PRINTDRIVER
  +--> ?PR?_PRINTDRV_SETBUMPERSTARTPEG?PRINT...
  +--> ?PR?_PRINTDRV_SETBUMPERENDPEG?PRINTDR...
  +--> ?PR?_OHDBEDENPROTOCOLSEND?EDENPROTOCO...
  +--> ?PR?_SCHEDULERSUSPENDTASK?MINISCHEDULER

?PR?_PRINTDRV_SETSTARTPEG?PRINTDRIVER            -----    -----      -----    -----
  +--> ?PR?_XILINXWRITE?XILINXINTERFACE

?PR?_PRINTDRV_SETENDPEG?PRINTDRIVER              -----    -----      -----    -----
  +--> ?PR?_XILINXWRITE?XILINXINTERFACE

?PR?_PRINTDRV_SETNUMOFFIRES?PRINTDRIVER          -----    -----      -----    -----
  +--> ?PR?_XILINXWRITE?XILINXINTERFACE

?PR?_PRINTDRV_SETBUMPERSTARTPEG?PRINT...         -----    -----      -----    -----
  +--> ?PR?_XILINXWRITE?XILINXINTERFACE

?PR?_PRINTDRV_SETBUMPERENDPEG?PRINTDR...         -----    -----      -----    -----
  +--> ?PR?_XILINXWRITE?XILINXINTERFACE

?PR?_ENABLEPRINTINGCIRCUITRYTASK?MSGD...         -----    -----      -----    -----
  +--> ?PR?PRINTDRV_DISBLEPRINTINGCIRCUITRY?...
  +--> ?PR?_SCHEDULERLEAVETASK?MINISCHEDULER
  +--> ?PR?PRINTDRV_ISSETOPERATIONDONE?PRINT...
  +--> ?PR?PRINTDRV_ENABLEPRINTINGCIRCUITRY?...
  +--> ?PR?_OHDBEDENPROTOCOLSEND?EDENPROTOCO...
  +--> ?PR?_SCHEDULERSUSPENDTASK?MINISCHEDULER

?PR?PRINTDRV_DISBLEPRINTINGCIRCUITRY?...         -----    -----      -----    -----
  +--> ?PR?_XILINXWRITE?XILINXINTERFACE

?PR?PRINTDRV_ENABLEPRINTINGCIRCUITRY?...         -----    -----      -----    -----
  +--> ?PR?_XILINXWRITE?XILINXINTERFACE

?PR?_DISABLEPRINTINGCIRCUITRYTASK?MSG...         -----    -----      -----    -----
  +--> ?PR?PRINTDRV_DISBLEPRINTINGCIRCUITRY?...
  +--> ?PR?_SCHEDULERLEAVETASK?MINISCHEDULER
  +--> ?PR?PRINTDRV_ISSETOPERATIONDONE?PRINT...
  +--> ?PR?_OHDBEDENPROTOCOLSEND?EDENPROTOCO...
  +--> ?PR?_SCHEDULERSUSPENDTASK?MINISCHEDULER
BL51 BANKED LINKER/LOCATER V6.22                                                      04/28/2015  17:26:03  PAGE 19



?PR?_GETHEATERSSTATUSTASK?MSGDECODEOHDB          -----    -----      -----    -----
  +--> ?PR?_HEATERGETCURRENTTEMPERATURES?HEA...
  +--> ?PR?_SWAPUNSIGNEDSHORTARRAY?BYTEORDER
  +--> ?PR?_OHDBEDENPROTOCOLSEND?EDENPROTOCO...
  +--> ?PR?_SCHEDULERSUSPENDTASK?MINISCHEDULER
  +--> ?PR?_SCHEDULERLEAVETASK?MINISCHEDULER

?PR?_HEATERGETCURRENTTEMPERATURES?HEA...         -----    -----      -----    -----
  +--> ?PR?HEATERCALCULATECURRENTTEMPEATURES...

?PR?_SETHEATERSSTANDBYTEMPTASK?MSGDEC...         -----    -----      -----    -----
  +--> ?PR?_OHDBEDENPROTOCOLSEND?EDENPROTOCO...
  +--> ?PR?_SCHEDULERSUSPENDTASK?MINISCHEDULER
  +--> ?PR?_SCHEDULERLEAVETASK?MINISCHEDULER

?PR?_GETHEATERSSTANDBYTEMPTASK?MSGDEC...         -----    -----      -----    -----
  +--> ?PR?_HEATERGETSTANDBYTEMPERATURES?HEA...
  +--> ?PR?_SWAPUNSIGNEDSHORTARRAY?BYTEORDER
  +--> ?PR?_OHDBEDENPROTOCOLSEND?EDENPROTOCO...
  +--> ?PR?_SCHEDULERSUSPENDTASK?MINISCHEDULER
  +--> ?PR?_SCHEDULERLEAVETASK?MINISCHEDULER

?PR?_SETBUMPERPARAMSTASK?MSGDECODEOHDB           -----    -----      -----    -----
  +--> ?PR?_OHDBEDENPROTOCOLSEND?EDENPROTOCO...
  +--> ?PR?_SCHEDULERSUSPENDTASK?MINISCHEDULER
  +--> ?PR?_SCHEDULERLEAVETASK?MINISCHEDULER

?PR?_SETHEATERSTEMPTASK?MSGDECODEOHDB            -----    -----      -----    -----
  +--> ?PR?_OHDBEDENPROTOCOLSEND?EDENPROTOCO...
  +--> ?PR?_SCHEDULERSUSPENDTASK?MINISCHEDULER
  +--> ?PR?_SCHEDULERLEAVETASK?MINISCHEDULER

?PR?_SETHEATERSONOFFTASK?MSGDECODEOHDB           -----    -----      -----    -----
  +--> ?PR?_OHDBEDENPROTOCOLSEND?EDENPROTOCO...
  +--> ?PR?_SCHEDULERSUSPENDTASK?MINISCHEDULER
  +--> ?PR?_SCHEDULERLEAVETASK?MINISCHEDULER

?PR?_GETMATERIALLEVELTASK?MSGDECODEOHDB          -----    -----      -----    -----
  +--> ?PR?_SENSORS_GETMATERIALLEVELSENSORS?...
  +--> ?PR?_SWAPUNSIGNEDSHORTARRAY?BYTEORDER
  +--> ?PR?_OHDBEDENPROTOCOLSEND?EDENPROTOCO...
  +--> ?PR?_SCHEDULERSUSPENDTASK?MINISCHEDULER
  +--> ?PR?_SCHEDULERLEAVETASK?MINISCHEDULER

?PR?_SENSORS_GETMATERIALLEVELSENSORS?...         -----    -----      -----    -----
  +--> ?PR?_SPIA2D_GETREADING?SPI_A2D
  +--> ?PR?_SPIEXTA2D_GETREADING?SPIEXTA2D

?PR?_ISHEADSVACUUMOKTASK?MSGDECODEOHDB           -----    -----      -----    -----
  +--> ?PR?SENSORS_ISHEADSVACUUMOK?SENSORSOHDB
  +--> ?PR?_OHDBEDENPROTOCOLSEND?EDENPROTOCO...
  +--> ?PR?_SCHEDULERSUSPENDTASK?MINISCHEDULER
  +--> ?PR?_SCHEDULERLEAVETASK?MINISCHEDULER

?PR?SENSORS_ISHEADSVACUUMOK?SENSORSOHDB          -----    -----      -----    -----
  +--> ?PR?_SPIA2D_GETREADING?SPI_A2D
BL51 BANKED LINKER/LOCATER V6.22                                                      04/28/2015  17:26:03  PAGE 20



?PR?_GETVACUUMSENSORTASK?MSGDECODEOHDB           -----    -----      -----    -----
  +--> ?PR?_SENSORS_GETVACUUMSENSOR?SENSORSOHDB
  +--> ?PR?_SWAPUNSIGNEDSHORT?BYTEORDER
  +--> ?PR?_OHDBEDENPROTOCOLSEND?EDENPROTOCO...
  +--> ?PR?_SCHEDULERSUSPENDTASK?MINISCHEDULER
  +--> ?PR?_SCHEDULERLEAVETASK?MINISCHEDULER

?PR?_SENSORS_GETVACUUMSENSOR?SENSORSOHDB         -----    -----      -----    -----
  +--> ?PR?_SPIA2D_GETREADING?SPI_A2D

?PR?_GETAMBIENTTEMPTASK?MSGDECODEOHDB            -----    -----      -----    -----
  +--> ?PR?SENSORS_GETAMBIENTTEMPSENSOR?SENS...
  +--> ?PR?_SWAPUNSIGNEDSHORT?BYTEORDER
  +--> ?PR?_OHDBEDENPROTOCOLSEND?EDENPROTOCO...
  +--> ?PR?_SCHEDULERSUSPENDTASK?MINISCHEDULER
  +--> ?PR?_SCHEDULERLEAVETASK?MINISCHEDULER

?PR?SENSORS_GETAMBIENTTEMPSENSOR?SENS...         -----    -----      -----    -----
  +--> ?PR?_A2D0READER_GETREADING?HEADSVOLTA...

?PR?_SETHEADSVACUUMTASK?MSGDECODEOHDB            -----    -----      -----    -----
  +--> ?PR?_OHDBEDENPROTOCOLSEND?EDENPROTOCO...
  +--> ?PR?_SCHEDULERSUSPENDTASK?MINISCHEDULER
  +--> ?PR?_SCHEDULERLEAVETASK?MINISCHEDULER

?PR?_RESETDRIVERCIRCUITTASK?MSGDECODE...         -----    -----      -----    -----
  +--> ?PR?PRINTDRV_RESETDRIVER?PRINTDRIVER
  +--> ?PR?_SCHEDULERLEAVETASK?MINISCHEDULER
  +--> ?PR?PRINTDRV_ISSETOPERATIONDONE?PRINT...
  +--> ?PR?_XILINXWRITE?XILINXINTERFACE
  +--> ?PR?_OHDBEDENPROTOCOLSEND?EDENPROTOCO...
  +--> ?PR?_SCHEDULERSUSPENDTASK?MINISCHEDULER

?PR?PRINTDRV_RESETDRIVER?PRINTDRIVER             -----    -----      -----    -----
  +--> ?PR?_XILINXWRITE?XILINXINTERFACE

?PR?_RESETDRIVERSTATETASK?MSGDECODEOHDB          -----    -----      -----    -----
  +--> ?PR?PRINTDRV_RESETSTATEMACHINE?PRINTD...
  +--> ?PR?_SCHEDULERLEAVETASK?MINISCHEDULER
  +--> ?PR?PRINTDRV_ISSETOPERATIONDONE?PRINT...
  +--> ?PR?_OHDBEDENPROTOCOLSEND?EDENPROTOCO...
  +--> ?PR?_SCHEDULERSUSPENDTASK?MINISCHEDULER

?PR?PRINTDRV_RESETSTATEMACHINE?PRINTD...         -----    -----      -----    -----
  +--> ?PR?_XILINXWRITE?XILINXINTERFACE

?PR?_APPLYDEFAULTPARAMSTASK?MSGDECODE...         -----    -----      -----    -----
  +--> ?PR?_PRINTDRV_SETDIAGNOSTICS?PRINTDRIVER
  +--> ?PR?_SCHEDULERLEAVETASK?MINISCHEDULER
  +--> ?PR?PRINTDRV_ISSETOPERATIONDONE?PRINT...
  +--> ?PR?_PRINTDRV_SETCOMMDIRECTION?PRINTD...
  +--> ?PR?_OHDBEDENPROTOCOLSEND?EDENPROTOCO...
  +--> ?PR?_SCHEDULERSUSPENDTASK?MINISCHEDULER

?PR?_PRINTDRV_SETDIAGNOSTICS?PRINTDRIVER         -----    -----      -----    -----
  +--> ?PR?_XILINXWRITE?XILINXINTERFACE
BL51 BANKED LINKER/LOCATER V6.22                                                      04/28/2015  17:26:03  PAGE 21



?PR?_PRINTDRV_SETCOMMDIRECTION?PRINTD...         -----    -----      -----    -----
  +--> ?PR?_XILINXWRITE?XILINXINTERFACE

?PR?_PRINTDRV_FIREALLTASK?PRINTDRIVER            -----    -----      -----    -----
  +--> ?PR?_OHDBEDENPROTOCOLSEND?EDENPROTOCO...
  +--> ?PR?_SCHEDULERLEAVETASK?MINISCHEDULER
  +--> ?PR?PRINTDRV_RESETSTATEMACHINE?PRINTD...
  +--> ?PR?PRINTDRV_ISSETOPERATIONDONE?PRINT...
  +--> ?PR?PRINTDRV_DISBLEPRINTINGCIRCUITRY?...
  +--> ?PR?_XILINXWRITE?XILINXINTERFACE
  +--> ?PR?XILINXGETWRITEACTIONSTATUS?XILINX...
  +--> ?PR?PRINTDRV_ENABLEPRINTINGCIRCUITRY?...
  +--> ?PR?_SCHEDULERTASKSLEEP?MINISCHEDULER
  +--> ?PR?_XILINXREAD?XILINXINTERFACE
  +--> ?PR?_XILINXGETRECEIVEDDATA?XILINXINTE...
  +--> ?PR?_SCHEDULERSUSPENDTASK?MINISCHEDULER

?PR?_GETSOFTWAREVERSIONTASK?MSGDECODE...         -----    -----      -----    -----
  +--> ?PR?_OHDBEDENPROTOCOLSEND?EDENPROTOCO...
  +--> ?PR?_SCHEDULERSUSPENDTASK?MINISCHEDULER
  +--> ?PR?_SCHEDULERLEAVETASK?MINISCHEDULER

?PR?_OHDBGETA2DSWVERSIONTASK?MSGDECOD...         -----    -----      -----    -----
  +--> ?PR?_SPIA2D_GETSW_VERSION?SPI_A2D
  +--> ?PR?_OHDBEDENPROTOCOLSEND?EDENPROTOCO...
  +--> ?PR?_SCHEDULERSUSPENDTASK?MINISCHEDULER
  +--> ?PR?_SCHEDULERLEAVETASK?MINISCHEDULER

?PR?_GETHARDWAREVERSIONTASK?MSGDECODE...         -----    -----      -----    -----
  +--> ?PR?_XILINXREAD?XILINXINTERFACE
  +--> ?PR?_SCHEDULERLEAVETASK?MINISCHEDULER
  +--> ?PR?_XILINXGETRECEIVEDDATA?XILINXINTE...
  +--> ?PR?_OHDBEDENPROTOCOLSEND?EDENPROTOCO...
  +--> ?PR?_SCHEDULERSUSPENDTASK?MINISCHEDULER

?PR?_OHDBPINGTASK?MSGDECODEOHDB                  -----    -----      -----    -----
  +--> ?PR?_OHDBEDENPROTOCOLSEND?EDENPROTOCO...
  +--> ?PR?_SCHEDULERSUSPENDTASK?MINISCHEDULER
  +--> ?PR?_SCHEDULERLEAVETASK?MINISCHEDULER

?PR?_SETPRINTINGHEADVOLTAGETASK?MSGDE...         -----    -----      -----    -----
  +--> ?PR?_PRINTDRV_SETHEADVOLTAGE?PRINTDRIVER
  +--> ?PR?_SCHEDULERLEAVETASK?MINISCHEDULER
  +--> ?PR?_PRINTDRV_ISSETVOLTAGEDONE?PRINTD...
  +--> ?PR?_OHDBEDENPROTOCOLSEND?EDENPROTOCO...
  +--> ?PR?_SCHEDULERSUSPENDTASK?MINISCHEDULER

?PR?_PRINTDRV_SETHEADVOLTAGE?PRINTDRIVER         -----    -----      -----    -----
  +--> ?PR?_OHDBPOTENMTRWRITEVALUE?POTENTIOM...

?PR?_PRINTDRV_ISSETVOLTAGEDONE?PRINTD...         -----    -----      -----    -----
  +--> ?PR?_OHDBPOTENMTRGETWRITESTATUS?POTEN...

?PR?_GETPRINTINGHEADVOLTAGETASK?MSGDE...         -----    -----      -----    -----
  +--> ?PR?_A2D0READER_GETHEADSVOLTAGES?HEAD...
  +--> ?PR?_SWAPUNSIGNEDSHORTARRAY?BYTEORDER
BL51 BANKED LINKER/LOCATER V6.22                                                      04/28/2015  17:26:03  PAGE 22


  +--> ?PR?_OHDBEDENPROTOCOLSEND?EDENPROTOCO...
  +--> ?PR?_SCHEDULERSUSPENDTASK?MINISCHEDULER
  +--> ?PR?_SCHEDULERLEAVETASK?MINISCHEDULER

?PR?_A2D0READER_GETHEADSVOLTAGES?HEAD...         -----    -----      -----    -----
  +--> ?PR?_A2D0READER_GETBLOCKREADINGS?HEAD...

?PR?_GETPOWERSUPPLIESTASK?MSGDECODEOHDB          -----    -----      -----    -----
  +--> ?PR?_SENSORS_GETPOWERSUPPLIESVOLTAGES...
  +--> ?PR?_SWAPUNSIGNEDSHORTARRAY?BYTEORDER
  +--> ?PR?_OHDBEDENPROTOCOLSEND?EDENPROTOCO...
  +--> ?PR?_SCHEDULERSUSPENDTASK?MINISCHEDULER
  +--> ?PR?_SCHEDULERLEAVETASK?MINISCHEDULER

?PR?_SENSORS_GETPOWERSUPPLIESVOLTAGES...         -----    -----      -----    -----
  +--> ?PR?_A2D2_GETREADING?A2D

?PR?_GETHEADDATATASK?MSGDECODEOHDB               -----    -----      -----    -----
  +--> ?PR?_HEADDATA_GETHEADDATA?HEADDATA
  +--> ?PR?_SWAPUNSIGNEDSHORT?BYTEORDER
  +--> ?PR?_SWAPUNSIGNEDLONG?BYTEORDER
  +--> ?PR?_OHDBEDENPROTOCOLSEND?EDENPROTOCO...
  +--> ?PR?_SCHEDULERSUSPENDTASK?MINISCHEDULER
  +--> ?PR?_SCHEDULERLEAVETASK?MINISCHEDULER

?PR?_SETMATERIALCOOLINGFANSTASK?MSGDE...         -----    -----      -----    -----
  +--> ?PR?_OHDBEDENPROTOCOLSEND?EDENPROTOCO...
  +--> ?PR?_SCHEDULERSUSPENDTASK?MINISCHEDULER
  +--> ?PR?_SCHEDULERLEAVETASK?MINISCHEDULER

?PR?_GETFIREALLSTATUSTASK?MSGDECODEOHDB          -----    -----      -----    -----
  +--> ?PR?PRINTDRV_GETFIREALLSTATUS?PRINTDR...
  +--> ?PR?PRINTDRV_GETFIREALLCOUNTER?PRINTD...
  +--> ?PR?_OHDBEDENPROTOCOLSEND?EDENPROTOCO...
  +--> ?PR?_SCHEDULERSUSPENDTASK?MINISCHEDULER
  +--> ?PR?_SCHEDULERLEAVETASK?MINISCHEDULER

?PR?_SETDEBUGMODETASK?MSGDECODEOHDB              -----    -----      -----    -----
  +--> ?PR?_OHDBEDENPROTOCOLSEND?EDENPROTOCO...
  +--> ?PR?_SCHEDULERSUSPENDTASK?MINISCHEDULER
  +--> ?PR?_SCHEDULERLEAVETASK?MINISCHEDULER

?PR?_SETHEADDATANACKTASK?MSGDECODEOHDB           -----    -----      -----    -----
  +--> ?PR?_OHDBEDENPROTOCOLSEND?EDENPROTOCO...
  +--> ?PR?_SCHEDULERSUSPENDTASK?MINISCHEDULER
  +--> ?PR?_SCHEDULERLEAVETASK?MINISCHEDULER

?PR?_SETBUMPERIMPACTONOFFTASK?MSGDECO...         -----    -----      -----    -----
  +--> ?PR?_OHDBEDENPROTOCOLSEND?EDENPROTOCO...
  +--> ?PR?_SCHEDULERSUSPENDTASK?MINISCHEDULER
  +--> ?PR?_SCHEDULERLEAVETASK?MINISCHEDULER

?PR?_SETBUMPERPEGONOFFTASK?MSGDECODEOHDB         -----    -----      -----    -----
  +--> ?PR?_PRINTDRV_ENABLEDISABLEBUMPERPEG?...
  +--> ?PR?_SCHEDULERLEAVETASK?MINISCHEDULER
  +--> ?PR?PRINTDRV_ISSETOPERATIONDONE?PRINT...
  +--> ?PR?_OHDBEDENPROTOCOLSEND?EDENPROTOCO...
BL51 BANKED LINKER/LOCATER V6.22                                                      04/28/2015  17:26:03  PAGE 23


  +--> ?PR?_SCHEDULERSUSPENDTASK?MINISCHEDULER

?PR?_PRINTDRV_ENABLEDISABLEBUMPERPEG?...         -----    -----      -----    -----
  +--> ?PR?_XILINXWRITE?XILINXINTERFACE

?PR?HEADDATA_INIT?HEADDATA                       -----    -----      -----    -----
  +--> ?PR?_HEADDATA_SETHEADDATATASK?HEADDATA
  +--> ?PR?_SCHEDULERINSTALLTASK?MINISCHEDULER

?PR?_HEADDATA_SETHEADDATATASK?HEADDATA           -----    -----      -----    -----
  +--> ?PR?_E2PROMWRITEENABLE?E2PROMINTERFACE
  +--> ?PR?_SCHEDULERLEAVETASK?MINISCHEDULER
  +--> ?PR?_E2PROMGETWRITESTATUS?E2PROMINTER...
  +--> ?PR?_E2PROMWRITEBLOCK?E2PROMINTERFACE
  +--> ?PR?_TIMERDELAY?TIMERDRV
  +--> ?PR?_E2PROMREADBLOCK?E2PROMINTERFACE
  +--> ?PR?_E2PROMGETRECEIVEDDATA?E2PROMINTE...
  +--> ?PR?_UTILS_CALCULATECHECKSUM?UTILS
  +--> ?PR?_OHDBEDENPROTOCOLSEND?EDENPROTOCO...
  +--> ?PR?_SCHEDULERSUSPENDTASK?MINISCHEDULER

?PR?_E2PROMWRITEBLOCK?E2PROMINTERFACE            -----    -----      -----    -----
  +--> ?PR?_SPISELECTSLAVE?SPIDRV
  +--> ?PR?SPIGETTXBUFFER?SPIDRV
  +--> ?PR?_E2PROMCALLBACK?E2PROMINTERFACE
  +--> ?PR?_SPISEND?SPIDRV

?PR?_TIMERDELAY?TIMERDRV                         -----    -----      -----    -----
  +--> ?PR?_TIMERSETTIMEOUT?TIMERDRV
  +--> ?PR?_TIMERHASTIMEOUTEXPIRED?TIMERDRV

?PR?_TIMERHASTIMEOUTEXPIRED?TIMERDRV             -----    -----      -----    -----
  +--> ?PR?TIMER0GETTIMERCOUNTER?TIMERDRV
  +--> ?PR?_DIFFTIME?TIMERDRV

?PR?_E2PROMREADBLOCK?E2PROMINTERFACE             -----    -----      -----    -----
  +--> ?PR?SPILOCK?SPIDRV
  +--> ?PR?SPIGETTXBUFFER?SPIDRV
  +--> ?PR?_SPISELECTSLAVE?SPIDRV
  +--> ?PR?_E2PROMCALLBACK?E2PROMINTERFACE
  +--> ?PR?_SPISEND?SPIDRV

?PR?HEADSVOLTAGEREADERINIT?HEADSVOLTA...         -----    -----      -----    -----
  +--> ?PR?_HEADSVOLTAGEREADERTASK?HEADSVOLT...
  +--> ?PR?_SCHEDULERINSTALLTASK?MINISCHEDULER
  +--> ?PR?_SCHEDULERRESUMETASK?MINISCHEDULER

?PR?_HEADSVOLTAGEREADERTASK?HEADSVOLT...         -----    -----      -----    -----
  +--> ?PR?SETA2D0BUFFERREADINESS?A2D
  +--> ?PR?_SCHEDULERLEAVETASK?MINISCHEDULER
  +--> ?PR?ISA2D0BUFFERREADY?A2D
  +--> ?PR?GETA2D0SELECTEDINPUT?A2D
  +--> ?PR?_A2D0_GETREADING?A2D
  +--> ?PR?A2D0_SELECTNEXTINPUT?A2D
  +--> ?PR?_XILINXWRITE?XILINXINTERFACE
  +--> ?PR?XILINXGETWRITEACTIONSTATUS?XILINX...

BL51 BANKED LINKER/LOCATER V6.22                                                      04/28/2015  17:26:03  PAGE 24


?PR?HEATERCONTROLINIT?HEATERCONTROL              -----    -----      -----    -----
  +--> ?PR?_TEMEPARTUREERRNOTIFCATIONTASK?HE...
  +--> ?PR?_SCHEDULERINSTALLTASK?MINISCHEDULER
  +--> ?PR?_HEATERSACTIVATIONTASK?HEATERCONTROL
  +--> ?PR?HEATERTURNALLHEADHEATEROFF?HEATER...

?PR?_TEMEPARTUREERRNOTIFCATIONTASK?HE...         -----    -----      -----    -----
  +--> ?PR?_SWAPUNSIGNEDSHORTARRAY?BYTEORDER
  +--> ?PR?_OHDBEDENPROTOCOLSEND?EDENPROTOCO...
  +--> ?PR?_SCHEDULERSUSPENDTASK?MINISCHEDULER
  +--> ?PR?_SCHEDULERLEAVETASK?MINISCHEDULER

?PR?_HEATERSACTIVATIONTASK?HEATERCONTROL         -----    -----      -----    -----
  +--> ?PR?_XILINXWRITE?XILINXINTERFACE
  +--> ?PR?_SCHEDULERLEAVETASK?MINISCHEDULER
  +--> ?PR?XILINXGETWRITEACTIONSTATUS?XILINX...
  +--> ?PR?_SCHEDULERSUSPENDTASK?MINISCHEDULER

?PR?PRINTDRV_INIT?PRINTDRIVER                    -----    -----      -----    -----
  +--> ?PR?PRINTDRV_RESETDRIVER?PRINTDRIVER
  +--> ?PR?PRINTDRV_ISSETOPERATIONDONE?PRINT...
  +--> ?PR?_XILINXWRITE?XILINXINTERFACE
  +--> ?PR?XILINXGETWRITEACTIONSTATUS?XILINX...

?PR?SENDWAKEUPNOTIFICATION?OHDBMAIN              -----    -----      -----    -----
  +--> ?PR?_OHDBEDENPROTOCOLSEND?EDENPROTOCO...

?PR?HEADDATA_READDATAFROMALLE2PROMS?H...         -----    -----      -----    -----
  +--> ?PR?_TIMERDELAY?TIMERDRV
  +--> ?PR?_E2PROMREADBLOCK?E2PROMINTERFACE
  +--> ?PR?_E2PROMGETRECEIVEDDATA?E2PROMINTE...
  +--> ?PR?_UTILS_CALCULATECHECKSUM?UTILS
  +--> ?PR?_E2PROMWRITEENABLE?E2PROMINTERFACE
  +--> ?PR?_E2PROMGETWRITESTATUS?E2PROMINTER...
  +--> ?PR?_E2PROMWRITEBLOCK?E2PROMINTERFACE
  +--> ?PR?_OHDBEDENPROTOCOLSEND?EDENPROTOCO...

?PR?_SPIA2D_TASK?SPI_A2D                         -----    -----      -----    -----
  +--> ?PR?SPIA2D_GETVALUESBYSPI?SPI_A2D
  +--> ?PR?_SCHEDULERLEAVETASK?MINISCHEDULER
  +--> ?PR?SPIA2D_GETVALUESCMDSTATUS?SPI_A2D
  +--> ?PR?ARERETRIESNEEDED_GETSWVER?SPI_A2D
  +--> ?PR?_SCHEDULERTASKSLEEP?MINISCHEDULER
  +--> ?PR?SPIA2D_GETSWVERSIONBYSPI?SPI_A2D
  +--> ?PR?SPIA2D_GETVERSIONCMDSTATUS?SPI_A2D

?PR?SPIA2D_GETVALUESBYSPI?SPI_A2D                -----    -----      -----    -----
  +--> ?PR?SPILOCK?SPIDRV
  +--> ?PR?SPIGETTXBUFFER?SPIDRV
  +--> ?PR?_SPISETCOMMWITHA2D?SPIDRV
  +--> ?PR?_SPISELECTSLAVE?SPIDRV
  +--> ?PR?SPIA2D_GETFREEBUFFER?SPI_A2D
  +--> ?PR?_SPIA2D_CALLBACK?SPI_A2D
  +--> ?PR?_SPISEND?SPIDRV

?PR?SPIA2D_GETVALUESCMDSTATUS?SPI_A2D            -----    -----      -----    -----
  +--> ?PR?_SPISELECTSLAVE?SPIDRV
BL51 BANKED LINKER/LOCATER V6.22                                                      04/28/2015  17:26:03  PAGE 25


  +--> ?PR?_SPISETCOMMWITHA2D?SPIDRV
  +--> ?PR?SPIUNLOCK?SPIDRV

?PR?ARERETRIESNEEDED_GETSWVER?SPI_A2D            -----    -----      -----    -----
  +--> ?PR?_SPIA2D_GETSW_VERSION?SPI_A2D

?PR?SPIA2D_GETSWVERSIONBYSPI?SPI_A2D             -----    -----      -----    -----
  +--> ?PR?SPILOCK?SPIDRV
  +--> ?PR?SPIGETTXBUFFER?SPIDRV
  +--> ?PR?_SPISETCOMMWITHA2D?SPIDRV
  +--> ?PR?_SPISELECTSLAVE?SPIDRV
  +--> ?PR?_SPIA2D_CALLBACK?SPI_A2D
  +--> ?PR?_SPISEND?SPIDRV

?PR?SPIA2D_GETVERSIONCMDSTATUS?SPI_A2D           -----    -----      -----    -----
  +--> ?PR?_SPISELECTSLAVE?SPIDRV
  +--> ?PR?_SPISETCOMMWITHA2D?SPIDRV
  +--> ?PR?SPIUNLOCK?SPIDRV

?PR?_SPIEXTA2D_TASK?SPIEXTA2D                    -----    -----      -----    -----
  +--> ?PR?SPIEXTA2D_SENDREQUEST?SPIEXTA2D
  +--> ?PR?_SCHEDULERLEAVETASK?MINISCHEDULER
  +--> ?PR?SPIEXTA2D_GETVALUES?SPIEXTA2D
  +--> ?PR?_SCHEDULERTASKSLEEP?MINISCHEDULER

?PR?SPIEXTA2D_SENDREQUEST?SPIEXTA2D              -----    -----      -----    -----
  +--> ?PR?SPILOCK?SPIDRV
  +--> ?PR?SPIGETTXBUFFER?SPIDRV
  +--> ?PR?_SPISELECTSLAVE?SPIDRV
  +--> ?PR?SPIEXTA2D_GETFREEBUFFER?SPIEXTA2D
  +--> ?PR?_SPIEXTA2D_CALLBACK?SPIEXTA2D
  +--> ?PR?_SPISEND?SPIDRV

?PR?SPIEXTA2D_GETVALUES?SPIEXTA2D                -----    -----      -----    -----
  +--> ?PR?_SPISELECTSLAVE?SPIDRV
  +--> ?PR?SPIUNLOCK?SPIDRV

?PR?_EDENPROTOCOLDECODETASK?EDENPROTO...         -----    -----      -----    -----
  +--> ?PR?_RINGBUFFREMOVE?RINGBUFF
  +--> ?PR?_OHDBEDENPROTOCOLDECODE?EDENPROTO...
  +--> ?PR?_SCHEDULERLEAVETASK?MINISCHEDULER

?PR?_OHDBEDENPROTOCOLDECODE?EDENPROTO...         -----    -----      -----    -----
  +--> ?PR?_GETAVAILABLEMSGHANDLE?RINGBUFF
  +--> ?PR?_GETMSGPTRBYHANDLE?RINGBUFF
  +--> ?PR?_INSERTBYTE?RINGBUFF
  +--> ?PR?_MARKMSGASREADY?RINGBUFF

?PR?_OHDBMESSAGEDECODETASK?MSGDECODEOHDB         -----    -----      -----    -----
  +--> ?PR?_GETREADYMSGHANDLE?RINGBUFF
  +--> ?PR?_GETMSGPTRBYHANDLE?RINGBUFF
  +--> ?PR?_MESSAGEDECODEOHDB?MSGDECODEOHDB
  +--> ?PR?_REMOVEMSG?RINGBUFF
  +--> ?PR?_SCHEDULERLEAVETASK?MINISCHEDULER

?PR?_MESSAGEDECODEOHDB?MSGDECODEOHDB             -----    -----      -----    -----
  +--> ?PR?RESETCOMMUNICATIONTIMEOUT?WATCHDOG
BL51 BANKED LINKER/LOCATER V6.22                                                      04/28/2015  17:26:03  PAGE 26


  +--> ?PR?_SCHEDULERRESUMETASK?MINISCHEDULER
  +--> ?PR?_SWAPUNSIGNEDSHORTARRAY?BYTEORDER
  +--> ?PR?_SWAPUNSIGNEDSHORT?BYTEORDER
  +--> ?PR?_HEATERSETTEMPERATURES?HEATERCONTROL
  +--> ?PR?_HEATERSETSTANDBYTEMPERATURES?HEA...
  +--> ?PR?_SENSORS_SETHEADSVACUUMPARAMS?SEN...
  +--> ?PR?_BUMPER_SETPARAMETERS?BUMPER
  +--> ?PR?_OHDBEDENPROTOCOLSEND?EDENPROTOCO...
  +--> ?PR?_TIMERDELAY?TIMERDRV
  +--> ?PR?_HEATERCONTROLSETONOFF?HEATERCONTROL
  +--> ?PR?_BUMPER_SETONOFF?BUMPER
  +--> ?PR?_PRINTDRV_SETFIREALLPARAMS?PRINTD...
  +--> ?PR?HEADDATA_GETHEADDATATASKHANDLE?HE...
  +--> ?PR?_SCHEDULERGETTASKSTATE?MINISCHEDULER
  +--> ?PR?_SWAPUNSIGNEDLONG?BYTEORDER
  +--> ?PR?_HEADDATA_SETHEADDATATASKPARAMS?H...
  +--> ?PR?_SETMATERIALCOOLINGFANSONOFF?ACTU...
  +--> ?PR?_ENABLEDISABLECOMMLOSSTASK?WATCHDOG
  +--> ?PR?_SCHEDULERGETTASKARG?MINISCHEDULER

?PR?RESETCOMMUNICATIONTIMEOUT?WATCHDOG           -----    -----      -----    -----
  +--> ?PR?_SCHEDULERTASKSLEEP?MINISCHEDULER

?PR?_BUMPER_SETPARAMETERS?BUMPER                 -----    -----      -----    -----
  +--> ?PR?_D2A0_WRITE?D2A
  +--> ?PR?_D2A1_WRITE?D2A

?PR?_BUMPER_SETONOFF?BUMPER                      -----    -----      -----    -----
  +--> ?PR?ENABLEBUMPERINTERRUPT?BUMPER
  +--> ?PR?_SCHEDULERRESUMETASK?MINISCHEDULER
  +--> ?PR?DISABLEBUMPERINTERRUPT?BUMPER
  +--> ?PR?_SCHEDULERSUSPENDTASK?MINISCHEDULER

?PR?_HEADDATA_SETHEADDATATASKPARAMS?H...         -----    -----      -----    -----
  +--> ?PR?_UTILS_CALCULATECHECKSUM?UTILS

?PR?_SETMATERIALCOOLINGFANSONOFF?ACTU...         -----    -----      -----    -----
  +--> ?PR?_SCHEDULERRESUMETASK?MINISCHEDULER

?PR?_ENABLEDISABLECOMMLOSSTASK?WATCHDOG          -----    -----      -----    -----
  +--> ?PR?_SCHEDULERTASKSLEEP?MINISCHEDULER
  +--> ?PR?_SCHEDULERSUSPENDTASK?MINISCHEDULER

?PR?_HEATERSTATUSTASK?HEATERCONTROL              -----    -----      -----    -----
  +--> ?PR?HEATERCALCULATECURRENTTEMPEATURES...
  +--> ?PR?_TIMERSETTIMEOUT?TIMERDRV
  +--> ?PR?_SCHEDULERSUSPENDTASK?MINISCHEDULER
  +--> ?PR?_SCHEDULERRESUMETASK?MINISCHEDULER
  +--> ?PR?HEATERTURNALLHEADHEATEROFF?HEATER...
  +--> ?PR?_SCHEDULERLEAVETASK?MINISCHEDULER

?PR?_HEATERCONTROLTASK?HEATERCONTROL             -----    -----      -----    -----
  +--> ?PR?GETNORMALIZEDBLOCKHEATERSAVERAGE?...
  +--> ?PR?_TIMERHASTIMEOUTEXPIRED?TIMERDRV
  +--> ?PR?_TIMERSETTIMEOUT?TIMERDRV
  +--> ?PR?_HEATERSETHEATERSTATE?HEATERCONTROL
  +--> ?PR?AREPERIMETERHEATERSREACHEDSETPOIN...
BL51 BANKED LINKER/LOCATER V6.22                                                      04/28/2015  17:26:03  PAGE 27


  +--> ?PR?TURNHEATERSONOFF?HEATERCONTROL
  +--> ?PR?_SCHEDULERLEAVETASK?MINISCHEDULER
  +--> ?PR?_SCHEDULERTASKSLEEP?MINISCHEDULER
  +--> ?PR?_SCHEDULERSUSPENDTASK?MINISCHEDULER
  +--> ?PR?_SCHEDULERRESUMETASK?MINISCHEDULER

?PR?GETNORMALIZEDBLOCKHEATERSAVERAGE?...         -----    -----      -----    -----
  +--> ?PR?_CONVERTBLOCKREADINGSTOHEADREADIN...

?PR?_CONVERTBLOCKREADINGSTOHEADREADIN...         -----    -----      -----    -----
  +--> ?PR?_POW?POW

?PR?_POW?POW                                     -----    -----      0B3AH    000AH
  +--> ?PR?LOG?LOG
  +--> ?PR?EXP?EXP

?PR?LOG?LOG                                      0021H.4  0000H.1    0B44H    0004H

?PR?TURNHEATERSONOFF?HEATERCONTROL               -----    -----      -----    -----
  +--> ?PR?_SCHEDULERRESUMETASK?MINISCHEDULER

?PR?SCHEDULERRUN?MINISCHEDULER                   -----    -----      -----    -----
  +--> ?PR?_TIMERHASTIMEOUTEXPIRED?TIMERDRV



SYMBOL TABLE OF MODULE:  .\Temp\OHDB2 (RINGBUFF)

  VALUE           TYPE          NAME
  ----------------------------------

  -------         MODULE        RINGBUFF
  C:0000H         SYMBOL        _ICE_DUMMY_
  C:560CH         PUBLIC        _RingBuffRemove
  C:6E03H         PUBLIC        _InsertByte
  C:7302H         PUBLIC        _GetMsgPtrByHandle
  B:0020H.5       PUBLIC        CharInSBuff
  C:5129H         PUBLIC        _RingBuffInsert
  C:8D7CH         PUBLIC        _GetReadyMsgHandle
  C:9884H         PUBLIC        _RingBuffGetElementCount
  C:78B2H         PUBLIC        _RemoveMsg
  C:8459H         PUBLIC        _GetAvailableMsgHandle
  C:96E4H         PUBLIC        _GetReadyMsgsNumber
  C:65B9H         PUBLIC        _RingBuffInit
  B:00A8H.4       PUBLIC        ES0
  C:7FBFH         PUBLIC        _MsgRingBuffInit
  D:0099H         PUBLIC        SBUF0
  C:7D7FH         PUBLIC        _MarkMsgAsReady
  -------         PROC          _RINGBUFFGETELEMENTCOUNT
  X:0D97H         SYMBOL        RingBuffer
  C:9884H         LINE#         46
  C:988FH         LINE#         47
  C:988FH         LINE#         48
  C:98A4H         LINE#         49
  -------         ENDPROC       _RINGBUFFGETELEMENTCOUNT
  -------         PROC          _RINGBUFFINIT
  X:0D9AH         SYMBOL        RingBuffer
BL51 BANKED LINKER/LOCATER V6.22                                                      04/28/2015  17:26:03  PAGE 28


  C:65B9H         LINE#         67
  C:65C4H         LINE#         68
  C:65C4H         LINE#         70
  C:65DAH         LINE#         71
  C:65EFH         LINE#         72
  C:6604H         LINE#         73
  C:6619H         LINE#         74
  C:662EH         LINE#         75
  C:663DH         LINE#         76
  C:6652H         LINE#         77
  C:6667H         LINE#         78
  -------         ENDPROC       _RINGBUFFINIT
  -------         PROC          _RINGBUFFINSERT
  X:0D9DH         SYMBOL        RingBuffer
  C:5129H         LINE#         113
  C:5139H         LINE#         116
  C:5167H         LINE#         117
  C:5167H         LINE#         118
  C:517FH         LINE#         119
  C:5184H         LINE#         120
  C:5184H         LINE#         124
  C:51B9H         LINE#         130
  C:51E8H         LINE#         131
  C:51E8H         LINE#         132
  C:51FEH         LINE#         133
  C:5200H         LINE#         135
  C:5200H         LINE#         136
  C:5215H         LINE#         137
  C:5215H         LINE#         139
  C:522BH         LINE#         141
  C:522DH         LINE#         142
  -------         ENDPROC       _RINGBUFFINSERT
  -------         PROC          _RINGBUFFREMOVE
  X:0C24H         SYMBOL        RingBuffer
  X:0C27H         SYMBOL        Element
  -------         DO            
  B:0020H.4       SYMBOL        IntSataus
  -------         ENDDO         
  C:560CH         LINE#         156
  C:5617H         LINE#         157
  C:5617H         LINE#         160
  C:562FH         LINE#         161
  C:562FH         LINE#         162
  C:5632H         LINE#         163
  C:5635H         LINE#         165
  C:5635H         LINE#         167
  C:5639H         LINE#         168
  C:563BH         LINE#         174
  C:567EH         LINE#         177
  C:56ADH         LINE#         178
  C:56C5H         LINE#         180
  C:56DAH         LINE#         182
  C:56F0H         LINE#         184
  C:56F4H         LINE#         188
  C:56F4H         LINE#         190
  C:56F6H         LINE#         191
  -------         ENDPROC       _RINGBUFFREMOVE
BL51 BANKED LINKER/LOCATER V6.22                                                      04/28/2015  17:26:03  PAGE 29


  -------         PROC          _MSGRINGBUFFINIT
  X:0DA0H         SYMBOL        MsgRingBuffer
  C:7FBFH         LINE#         227
  C:7FCAH         LINE#         228
  C:7FCAH         LINE#         230
  C:7FE0H         LINE#         231
  C:7FF5H         LINE#         232
  C:800AH         LINE#         233
  C:801FH         LINE#         234
  C:802EH         LINE#         236
  -------         ENDPROC       _MSGRINGBUFFINIT
  -------         PROC          _GETAVAILABLEMSGHANDLE
  X:0DA3H         SYMBOL        MsgRingBuffer
  C:8459H         LINE#         246
  C:8464H         LINE#         247
  C:8464H         LINE#         250
  C:8492H         LINE#         251
  C:8497H         LINE#         253
  C:84AEH         LINE#         254
  -------         ENDPROC       _GETAVAILABLEMSGHANDLE
  -------         PROC          _GETMSGPTRBYHANDLE
  X:0C6CH         SYMBOL        MsgRingBuffer
  X:0C6FH         SYMBOL        Handle
  C:7302H         LINE#         263
  C:7315H         LINE#         264
  C:7315H         LINE#         267
  C:7359H         LINE#         268
  C:7360H         LINE#         270
  C:7388H         LINE#         272
  -------         ENDPROC       _GETMSGPTRBYHANDLE
  -------         PROC          _MARKMSGASREADY
  X:0DA6H         SYMBOL        MsgRingBuffer
  C:7D7FH         LINE#         281
  C:7D8AH         LINE#         282
  C:7D8AH         LINE#         285
  C:7DBAH         LINE#         286
  C:7DCFH         LINE#         288
  C:7DDEH         LINE#         292
  C:7DF4H         LINE#         293
  -------         ENDPROC       _MARKMSGASREADY
  -------         PROC          _GETREADYMSGSNUMBER
  X:0DA9H         SYMBOL        MsgRingBuffer
  C:96E4H         LINE#         302
  C:96EFH         LINE#         303
  C:96EFH         LINE#         304
  C:9706H         LINE#         305
  -------         ENDPROC       _GETREADYMSGSNUMBER
  -------         PROC          _GETREADYMSGHANDLE
  X:0DACH         SYMBOL        MsgRingBuffer
  C:8D7CH         LINE#         314
  C:8D87H         LINE#         315
  C:8D87H         LINE#         316
  C:8D9FH         LINE#         317
  C:8DA4H         LINE#         319
  C:8DBBH         LINE#         320
  -------         ENDPROC       _GETREADYMSGHANDLE
  -------         PROC          _REMOVEMSG
BL51 BANKED LINKER/LOCATER V6.22                                                      04/28/2015  17:26:03  PAGE 30


  X:0DAFH         SYMBOL        MsgRingBuffer
  C:78B2H         LINE#         328
  C:78BDH         LINE#         329
  C:78BDH         LINE#         330
  C:78D5H         LINE#         335
  C:7905H         LINE#         336
  C:791AH         LINE#         340
  C:7930H         LINE#         341
  -------         ENDPROC       _REMOVEMSG
  -------         PROC          _INSERTBYTE
  X:0C2AH         SYMBOL        MsgRingBuffer
  X:0C2DH         SYMBOL        Handle
  X:0C2FH         SYMBOL        Data
  C:6E03H         LINE#         350
  C:6E16H         LINE#         351
  C:6E16H         LINE#         352
  C:6E2BH         LINE#         355
  C:6E83H         LINE#         356
  C:6E93H         LINE#         358
  -------         ENDPROC       _INSERTBYTE
  -------         ENDMOD        RINGBUFF

  -------         MODULE        ROLLER
  C:0000H         SYMBOL        _ICE_DUMMY_
  C:9BD4H         PUBLIC        Roller_IsSetOperationDone
  D:00B0H         PUBLIC        P3
  C:8DBCH         PUBLIC        _Roller_EnableDriver
  C:9C3FH         PUBLIC        Roller_IsOn
  C:8C77H         PUBLIC        _Roller_SetOnOff
  B:0020H.0       PUBLIC        RollerIsEnabled
  C:9BC6H         PUBLIC        Roller_GetSpeed
  C:0006H         PUBLIC        Roller_Init
  B:0020H.1       PUBLIC        RollerIsOn
  C:8FA5H         PUBLIC        _Roller_IsGetOperationDone
  C:9270H         PUBLIC        _Roller_SetSpeed
  -------         PROC          ROLLER_INIT
  C:0006H         LINE#         44
  C:0006H         LINE#         45
  C:0006H         LINE#         46
  C:0008H         LINE#         47
  C:000AH         LINE#         49
  -------         ENDPROC       ROLLER_INIT
  -------         PROC          _ROLLER_ENABLEDRIVER
  X:0D07H         SYMBOL        Enable
  -------         DO            
  X:0D08H         SYMBOL        EnableMsg
  -------         ENDDO         
  C:8DBCH         LINE#         60
  C:8DC1H         LINE#         61
  C:8DC1H         LINE#         66
  C:8DC7H         LINE#         67
  C:8DCFH         LINE#         68
  C:8DCFH         LINE#         69
  C:8DD8H         LINE#         70
  C:8DDAH         LINE#         71
  C:8DDCH         LINE#         73
  C:8DDCH         LINE#         74
BL51 BANKED LINKER/LOCATER V6.22                                                      04/28/2015  17:26:03  PAGE 31


  C:8DE4H         LINE#         75
  C:8DE6H         LINE#         76
  C:8DE8H         LINE#         77
  C:8DE8H         LINE#         81
  C:8DF5H         LINE#         82
  C:8DF8H         LINE#         84
  C:8DFAH         LINE#         86
  -------         ENDPROC       _ROLLER_ENABLEDRIVER
  -------         PROC          _ROLLER_SETONOFF
  X:0D0BH         SYMBOL        On
  -------         DO            
  X:0D0CH         SYMBOL        SetOnOffMsg
  -------         ENDDO         
  C:8C77H         LINE#         97
  C:8C7CH         LINE#         98
  C:8C7CH         LINE#         103
  C:8C82H         LINE#         104
  C:8C8AH         LINE#         105
  C:8C8AH         LINE#         106
  C:8C93H         LINE#         107
  C:8C96H         LINE#         108
  C:8C98H         LINE#         109
  C:8C9AH         LINE#         111
  C:8C9AH         LINE#         112
  C:8CA2H         LINE#         113
  C:8CA4H         LINE#         114
  C:8CA6H         LINE#         115
  C:8CA6H         LINE#         119
  C:8CB3H         LINE#         120
  C:8CB6H         LINE#         122
  C:8CB8H         LINE#         124
  -------         ENDPROC       _ROLLER_SETONOFF
  -------         PROC          _ROLLER_SETSPEED
  X:0C71H         SYMBOL        Speed
  -------         DO            
  X:0C73H         SYMBOL        SetSpeedMsg
  -------         ENDDO         
  C:9270H         LINE#         135
  C:9278H         LINE#         136
  C:9278H         LINE#         141
  C:927EH         LINE#         142
  C:928EH         LINE#         146
  C:929BH         LINE#         147
  C:929EH         LINE#         149
  C:92A0H         LINE#         151
  -------         ENDPROC       _ROLLER_SETSPEED
  -------         PROC          ROLLER_ISON
  C:9C3FH         LINE#         162
  C:9C3FH         LINE#         163
  C:9C3FH         LINE#         164
  C:9C44H         LINE#         165
  -------         ENDPROC       ROLLER_ISON
  -------         PROC          ROLLER_GETSPEED
  C:9BC6H         LINE#         176
  C:9BC6H         LINE#         177
  C:9BC6H         LINE#         178
  C:9BCEH         LINE#         179
BL51 BANKED LINKER/LOCATER V6.22                                                      04/28/2015  17:26:03  PAGE 32


  C:9BD1H         LINE#         181
  C:9BD3H         LINE#         183
  -------         ENDPROC       ROLLER_GETSPEED
  -------         PROC          ROLLER_ISSETOPERATIONDONE
  C:9BD4H         LINE#         194
  C:9BD4H         LINE#         195
  C:9BD4H         LINE#         199
  C:9BDCH         LINE#         200
  C:9BDFH         LINE#         202
  C:9BE1H         LINE#         204
  -------         ENDPROC       ROLLER_ISSETOPERATIONDONE
  -------         PROC          _ROLLER_ISGETOPERATIONDONE
  X:0C76H         SYMBOL        Data
  -------         DO            
  X:0C79H         SYMBOL        XilinxData
  -------         ENDDO         
  C:8FA5H         LINE#         215
  C:8FB0H         LINE#         216
  C:8FB0H         LINE#         218
  C:8FBEH         LINE#         219
  C:8FBEH         LINE#         221
  C:8FD9H         LINE#         222
  C:8FDCH         LINE#         223
  C:8FDCH         LINE#         225
  C:8FDEH         LINE#         227
  -------         ENDPROC       _ROLLER_ISGETOPERATIONDONE
  -------         ENDMOD        ROLLER

  -------         MODULE        MINISCHEDULER
  C:0000H         SYMBOL        _ICE_DUMMY_
  X:0000H         PUBLIC        Tasks
  C:809CH         PUBLIC        _SchedulerInstallTask
  C:8EF3H         PUBLIC        _SchedulerSuspendTask
  C:90FFH         PUBLIC        _SchedulerLeaveTask
  C:8E79H         PUBLIC        _SchedulerResumeTask
  C:644EH         PUBLIC        _SchedulerTaskSleep
  C:0086H         PUBLIC        SchedulerInit
  C:4926H         PUBLIC        SchedulerRun
  C:9A11H         PUBLIC        _SchedulerGetTaskState
  X:020AH         PUBLIC        NumOfTasks
  C:9A2DH         PUBLIC        _SchedulerGetTaskArg
  X:020BH         PUBLIC        RunningTask
  -------         PROC          SCHEDULERINIT
  C:0086H         LINE#         56
  C:0086H         LINE#         57
  C:0086H         LINE#         58
  C:008BH         LINE#         59
  C:0091H         LINE#         60
  -------         ENDPROC       SCHEDULERINIT
  -------         PROC          _SCHEDULERINSTALLTASK
  X:0D0FH         SYMBOL        TaskFunctionPtr
  -------         DO            
  X:0D12H         SYMBOL        Handle
  -------         ENDDO         
  C:809CH         LINE#         71
  C:80A7H         LINE#         72
  C:80A7H         LINE#         75
BL51 BANKED LINKER/LOCATER V6.22                                                      04/28/2015  17:26:03  PAGE 33


  C:80B2H         LINE#         76
  C:80B5H         LINE#         78
  C:80BFH         LINE#         79
  C:80E6H         LINE#         80
  C:80FCH         LINE#         82
  C:8102H         LINE#         84
  C:8107H         LINE#         86
  -------         ENDPROC       _SCHEDULERINSTALLTASK
  -------         PROC          _SCHEDULERRESUMETASK
  X:0DFAH         SYMBOL        Handle
  X:0DFBH         SYMBOL        Arg
  C:8E79H         LINE#         97
  C:8E83H         LINE#         98
  C:8E83H         LINE#         99
  C:8E9AH         LINE#         100
  C:8EB5H         LINE#         101
  -------         ENDPROC       _SCHEDULERRESUMETASK
  -------         PROC          _SCHEDULERSUSPENDTASK
  X:0E20H         SYMBOL        Handle
  C:8EF3H         LINE#         112
  C:8EF8H         LINE#         113
  C:8EF8H         LINE#         116
  C:8F01H         LINE#         117
  C:8F18H         LINE#         119
  C:8F2EH         LINE#         120
  -------         ENDPROC       _SCHEDULERSUSPENDTASK
  -------         PROC          _SCHEDULERLEAVETASK
  X:0E21H         SYMBOL        Arg
  C:90FFH         LINE#         131
  C:9104H         LINE#         132
  C:9104H         LINE#         133
  C:911FH         LINE#         134
  C:9136H         LINE#         135
  -------         ENDPROC       _SCHEDULERLEAVETASK
  -------         PROC          _SCHEDULERTASKSLEEP
  X:0DB2H         SYMBOL        Handle
  X:0DB3H         SYMBOL        SleepTime
  C:644EH         LINE#         146
  C:645BH         LINE#         147
  C:645BH         LINE#         150
  C:6465H         LINE#         151
  C:6465H         LINE#         152
  C:647CH         LINE#         153
  C:64B6H         LINE#         154
  C:64B7H         LINE#         156
  C:64B7H         LINE#         157
  C:64CEH         LINE#         158
  C:6508H         LINE#         159
  C:6508H         LINE#         161
  -------         ENDPROC       _SCHEDULERTASKSLEEP
  -------         PROC          SCHEDULERRUN
  -------         DO            
  X:0E22H         SYMBOL        i
  -------         ENDDO         
  C:4926H         LINE#         172
  C:4926H         LINE#         173
  C:4926H         LINE#         176
BL51 BANKED LINKER/LOCATER V6.22                                                      04/28/2015  17:26:03  PAGE 34


  C:493DH         LINE#         177
  C:493DH         LINE#         180
  C:494DH         LINE#         181
  C:4952H         LINE#         186
  C:496DH         LINE#         187
  C:496DH         LINE#         188
  C:4984H         LINE#         189
  C:49BDH         LINE#         190
  C:49BEH         LINE#         191
  C:49BEH         LINE#         195
  C:49D9H         LINE#         196
  C:49D9H         LINE#         197
  C:49F9H         LINE#         198
  C:49F9H         LINE#         199
  C:4A10H         LINE#         200
  C:4A49H         LINE#         201
  C:4A4AH         LINE#         202
  C:4A4AH         LINE#         203
  C:4A4AH         LINE#         205
  C:4A53H         LINE#         206
  -------         ENDPROC       SCHEDULERRUN
  -------         PROC          _SCHEDULERGETTASKSTATE
  X:0E23H         SYMBOL        Handle
  C:9A11H         LINE#         217
  C:9A16H         LINE#         218
  C:9A16H         LINE#         219
  C:9A2CH         LINE#         220
  -------         ENDPROC       _SCHEDULERGETTASKSTATE
  -------         PROC          _SCHEDULERGETTASKARG
  X:0E24H         SYMBOL        Handle
  C:9A2DH         LINE#         230
  C:9A32H         LINE#         231
  C:9A32H         LINE#         232
  C:9A48H         LINE#         233
  -------         ENDPROC       _SCHEDULERGETTASKARG
  -------         ENDMOD        MINISCHEDULER

  -------         MODULE        BYTEORDER
  C:0000H         SYMBOL        _ICE_DUMMY_
  C:9AB6H         PUBLIC        _SwapLong
  C:9A9CH         PUBLIC        _SwapShort
  C:89B1H         PUBLIC        _SwapLongArray
  C:8965H         PUBLIC        _SwapShortArray
  C:606FH         PUBLIC        _SwapUnsignedLong
  C:7DF5H         PUBLIC        _SwapUnsignedShort
  C:4674H         PUBLIC        _SwapUnsignedLongArray
  C:56F7H         PUBLIC        _SwapUnsignedShortArray
  -------         PROC          _SWAPUNSIGNEDSHORT
  X:0BFAH         SYMBOL        S
  -------         DO            
  X:0BFDH         SYMBOL        cp
  X:0C00H         SYMBOL        t
  -------         ENDDO         
  C:7DF5H         LINE#         17
  C:7E00H         LINE#         18
  C:7E00H         LINE#         19
  C:7E16H         LINE#         22
BL51 BANKED LINKER/LOCATER V6.22                                                      04/28/2015  17:26:03  PAGE 35


  C:7E68H         LINE#         23
  -------         ENDPROC       _SWAPUNSIGNEDSHORT
  -------         PROC          _SWAPSHORT
  X:0DB5H         SYMBOL        S
  C:9A9CH         LINE#         27
  C:9AA7H         LINE#         28
  C:9AA7H         LINE#         29
  C:9AB5H         LINE#         30
  -------         ENDPROC       _SWAPSHORT
  -------         PROC          _SWAPUNSIGNEDLONG
  X:0C01H         SYMBOL        L
  -------         DO            
  X:0C04H         SYMBOL        cp
  X:0C07H         SYMBOL        t
  -------         ENDDO         
  C:606FH         LINE#         34
  C:607AH         LINE#         35
  C:607AH         LINE#         36
  C:6090H         LINE#         39
  C:60E2H         LINE#         40
  C:6140H         LINE#         41
  -------         ENDPROC       _SWAPUNSIGNEDLONG
  -------         PROC          _SWAPLONG
  X:0DB8H         SYMBOL        L
  C:9AB6H         LINE#         45
  C:9AC1H         LINE#         46
  C:9AC1H         LINE#         47
  C:9ACFH         LINE#         48
  -------         ENDPROC       _SWAPLONG
  -------         PROC          _SWAPUNSIGNEDSHORTARRAY
  X:0B55H         SYMBOL        Src
  X:0B58H         SYMBOL        Dst
  X:0B5BH         SYMBOL        ElementsNum
  -------         DO            
  X:0B5DH         SYMBOL        cp
  X:0B60H         SYMBOL        t
  -------         ENDDO         
  C:56F7H         LINE#         52
  C:5702H         LINE#         53
  C:5702H         LINE#         57
  C:5717H         LINE#         58
  C:575FH         LINE#         59
  C:578AH         LINE#         60
  C:57DCH         LINE#         61
  C:57DFH         LINE#         62
  -------         ENDPROC       _SWAPUNSIGNEDSHORTARRAY
  -------         PROC          _SWAPSHORTARRAY
  X:0BC2H         SYMBOL        Src
  X:0BC5H         SYMBOL        Dst
  X:0BC8H         SYMBOL        ElementsNum
  C:8965H         LINE#         66
  C:8970H         LINE#         67
  C:8970H         LINE#         68
  C:89B0H         LINE#         69
  -------         ENDPROC       _SWAPSHORTARRAY
  -------         PROC          _SWAPUNSIGNEDLONGARRAY
  X:0B61H         SYMBOL        Src
BL51 BANKED LINKER/LOCATER V6.22                                                      04/28/2015  17:26:03  PAGE 36


  X:0B64H         SYMBOL        Dst
  X:0B67H         SYMBOL        ElementsNum
  -------         DO            
  X:0B69H         SYMBOL        cp
  X:0B6CH         SYMBOL        t
  -------         ENDDO         
  C:4674H         LINE#         73
  C:467FH         LINE#         74
  C:467FH         LINE#         78
  C:4694H         LINE#         79
  C:46EEH         LINE#         80
  C:471DH         LINE#         81
  C:476FH         LINE#         82
  C:47CDH         LINE#         83
  C:47D0H         LINE#         84
  -------         ENDPROC       _SWAPUNSIGNEDLONGARRAY
  -------         PROC          _SWAPLONGARRAY
  X:0BCAH         SYMBOL        Src
  X:0BCDH         SYMBOL        Dst
  X:0BD0H         SYMBOL        ElementsNum
  C:89B1H         LINE#         88
  C:89BCH         LINE#         89
  C:89BCH         LINE#         90
  C:89FCH         LINE#         91
  -------         ENDPROC       _SWAPLONGARRAY
  -------         ENDMOD        BYTEORDER

  -------         MODULE        XILINXINTERFACE
  C:0000H         SYMBOL        _ICE_DUMMY_
  C:715EH         PUBLIC        _XilinxRead
  D:00B0H         PUBLIC        P3
  B:00B0H.1       PUBLIC        FPGA_RESET
  C:5EC8H         PUBLIC        _XilinxWrite
  C:9BFCH         PUBLIC        XilinxInit
  X:0C30H         PUBLIC        XilinxTransactionStatus
  C:9924H         PUBLIC        XilinxGetWriteActionStatus
  X:0C31H         PUBLIC        XilinxDataIn
  B:00B0H.0       PUBLIC        XILINX_R_W
  C:8294H         PUBLIC        _XilinxGetReceivedData
  C:9707H         PUBLIC        _XilinxCallBack
  -------         PROC          XILINXINIT
  C:9BFCH         LINE#         57
  C:9BFCH         LINE#         58
  C:9BFCH         LINE#         59
  C:9C02H         LINE#         61
  C:9C04H         LINE#         62
  C:9C06H         LINE#         63
  -------         ENDPROC       XILINXINIT
  -------         PROC          _XILINXREAD
  X:0DBBH         SYMBOL        Address
  -------         DO            
  X:0DBCH         SYMBOL        Message
  -------         ENDDO         
  C:715EH         LINE#         76
  C:7163H         LINE#         77
  C:7163H         LINE#         82
  C:716AH         LINE#         83
BL51 BANKED LINKER/LOCATER V6.22                                                      04/28/2015  17:26:03  PAGE 37


  C:716DH         LINE#         87
  C:7173H         LINE#         91
  C:717AH         LINE#         95
  C:717CH         LINE#         99
  C:718BH         LINE#         100
  C:719EH         LINE#         101
  C:71ADH         LINE#         102
  C:71BDH         LINE#         107
  C:71E7H         LINE#         109
  C:71E9H         LINE#         111
  -------         ENDPROC       _XILINXREAD
  -------         PROC          _XILINXWRITE
  X:0C7BH         SYMBOL        Msg
  -------         DO            
  X:0C7EH         SYMBOL        Message
  -------         ENDDO         
  C:5EC8H         LINE#         125
  C:5ED3H         LINE#         126
  C:5ED3H         LINE#         131
  C:5EDAH         LINE#         132
  C:5EDDH         LINE#         136
  C:5EE3H         LINE#         140
  C:5EEAH         LINE#         144
  C:5EECH         LINE#         148
  C:5EFBH         LINE#         149
  C:5F18H         LINE#         150
  C:5F44H         LINE#         151
  C:5F6FH         LINE#         155
  C:5F99H         LINE#         157
  C:5F9BH         LINE#         158
  -------         ENDPROC       _XILINXWRITE
  -------         PROC          _XILINXCALLBACK
  X:0E25H         SYMBOL        Status
  C:9707H         LINE#         175
  C:9711H         LINE#         178
  C:9719H         LINE#         179
  C:9721H         LINE#         181
  C:9727H         LINE#         182
  -------         ENDPROC       _XILINXCALLBACK
  -------         PROC          _XILINXGETRECEIVEDDATA
  X:0DBEH         SYMBOL        Data
  C:8294H         LINE#         195
  C:829FH         LINE#         196
  C:829FH         LINE#         199
  C:82A8H         LINE#         200
  C:82ABH         LINE#         202
  C:82B4H         LINE#         203
  C:82B4H         LINE#         204
  C:82CEH         LINE#         205
  C:82E2H         LINE#         206
  C:82E2H         LINE#         210
  C:82E9H         LINE#         215
  C:82ECH         LINE#         217
  C:82F1H         LINE#         218
  -------         ENDPROC       _XILINXGETRECEIVEDDATA
  -------         PROC          XILINXGETWRITEACTIONSTATUS
  C:9924H         LINE#         232
BL51 BANKED LINKER/LOCATER V6.22                                                      04/28/2015  17:26:03  PAGE 38


  C:9924H         LINE#         233
  C:9924H         LINE#         236
  C:992DH         LINE#         237
  C:9930H         LINE#         241
  C:9937H         LINE#         245
  C:9939H         LINE#         249
  C:993CH         LINE#         251
  C:9941H         LINE#         252
  -------         ENDPROC       XILINXGETWRITEACTIONSTATUS
  -------         ENDMOD        XILINXINTERFACE

  -------         MODULE        OHDBMAIN
  C:0000H         SYMBOL        _ICE_DUMMY_
  D:0090H         PUBLIC        P1
  D:00FFH         PUBLIC        WDTCN
  D:00B0H         PUBLIC        P3
  B:00A8H.7       PUBLIC        EA
  D:0084H         PUBLIC        SFRPAGE
  D:00A5H         PUBLIC        P1MDOUT
  D:00E1H         PUBLIC        XBR0
  D:00E2H         PUBLIC        XBR1
  D:00E3H         PUBLIC        XBR2
  C:5429H         PUBLIC        main
  D:00ADH         PUBLIC        P1MDIN
  C:91A2H         PUBLIC        SendWakeUpNotification
  C:955EH         PUBLIC        XBR_Init
  D:00EFH         PUBLIC        RSTSRC
  C:0019H         PUBLIC        dummy_int_3
  C:001AH         PUBLIC        dummy_int_5
  C:0021H         PUBLIC        dummy_int_7
  C:0022H         PUBLIC        dummy_int_8
  C:0029H         PUBLIC        dummy_int_9
  -------         PROC          MAIN
  -------         DO            
  X:0C36H         SYMBOL        A2DTaskHandle
  X:0C37H         SYMBOL        HeaterStatusTaskHandle
  X:0C38H         SYMBOL        HeaterControlTaskHandle
  X:0C39H         SYMBOL        ExtA2DTaskHandle
  X:0C3AH         SYMBOL        EdenProtocolTaskHandle
  X:0C3BH         SYMBOL        OHDBMessageDecodeTaskHandle
  -------         ENDDO         
  C:5429H         LINE#         44
  C:5429H         LINE#         45
  C:5429H         LINE#         49
  C:542CH         LINE#         50
  C:542FH         LINE#         52
  C:5432H         LINE#         54
  C:5435H         LINE#         55
  C:5438H         LINE#         56
  C:543BH         LINE#         58
  C:543EH         LINE#         60
  C:5441H         LINE#         61
  C:5444H         LINE#         62
  C:5447H         LINE#         63
  C:544AH         LINE#         64
  C:544DH         LINE#         65
  C:5450H         LINE#         66
BL51 BANKED LINKER/LOCATER V6.22                                                      04/28/2015  17:26:03  PAGE 39


  C:5453H         LINE#         67
  C:5456H         LINE#         68
  C:5459H         LINE#         69
  C:545CH         LINE#         70
  C:545FH         LINE#         71
  C:5462H         LINE#         72
  C:5465H         LINE#         73
  C:5468H         LINE#         74
  C:546BH         LINE#         75
  C:546EH         LINE#         77
  C:5470H         LINE#         79
  C:5473H         LINE#         80
  C:5476H         LINE#         81
  C:5479H         LINE#         82
  C:547CH         LINE#         84
  C:548AH         LINE#         85
  C:5498H         LINE#         86
  C:54A6H         LINE#         87
  C:54B4H         LINE#         88
  C:54C2H         LINE#         89
  C:54D0H         LINE#         91
  C:54DDH         LINE#         93
  C:54E5H         LINE#         94
  C:54EFH         LINE#         95
  C:54F9H         LINE#         96
  C:5503H         LINE#         97
  C:550DH         LINE#         98
  C:5517H         LINE#         101
  C:5517H         LINE#         102
  C:5517H         LINE#         103
  C:551AH         LINE#         104
  C:551CH         LINE#         105
  -------         ENDPROC       MAIN
  -------         PROC          SENDWAKEUPNOTIFICATION
  -------         DO            
  X:0DFCH         SYMBOL        Msg
  -------         ENDDO         
  C:91A2H         LINE#         117
  C:91A2H         LINE#         118
  C:91A2H         LINE#         121
  C:91A8H         LINE#         125
  C:91B8H         LINE#         127
  C:91D5H         LINE#         128
  -------         ENDPROC       SENDWAKEUPNOTIFICATION
  -------         PROC          XBR_INIT
  C:955EH         LINE#         131
  C:955EH         LINE#         132
  C:955EH         LINE#         133
  C:9561H         LINE#         136
  C:9564H         LINE#         139
  C:9567H         LINE#         141
  C:956AH         LINE#         142
  C:956DH         LINE#         143
  C:9570H         LINE#         146
  C:9573H         LINE#         149
  C:9576H         LINE#         152
  C:9579H         LINE#         155
BL51 BANKED LINKER/LOCATER V6.22                                                      04/28/2015  17:26:03  PAGE 40


  C:957CH         LINE#         158
  C:957FH         LINE#         161
  C:9582H         LINE#         163
  C:9585H         LINE#         164
  -------         ENDPROC       XBR_INIT
  -------         PROC          DUMMY_INT_3
  C:0019H         LINE#         167
  C:0019H         LINE#         169
  -------         ENDPROC       DUMMY_INT_3
  -------         PROC          DUMMY_INT_5
  C:001AH         LINE#         171
  C:001AH         LINE#         173
  -------         ENDPROC       DUMMY_INT_5
  -------         PROC          DUMMY_INT_7
  C:0021H         LINE#         175
  C:0021H         LINE#         177
  -------         ENDPROC       DUMMY_INT_7
  -------         PROC          DUMMY_INT_8
  C:0022H         LINE#         179
  C:0022H         LINE#         181
  -------         ENDPROC       DUMMY_INT_8
  -------         PROC          DUMMY_INT_9
  C:0029H         LINE#         183
  C:0029H         LINE#         185
  -------         ENDPROC       DUMMY_INT_9
  -------         ENDMOD        OHDBMAIN

  -------         MODULE        TIMERDRV
  C:0000H         SYMBOL        _ICE_DUMMY_
  D:00E7H         PUBLIC        EIE2
  C:9960H         PUBLIC        Timer_0_Init
  D:0084H         PUBLIC        SFRPAGE
  C:9B1BH         PUBLIC        Timer_1_Init
  C:82F2H         PUBLIC        _DiffTime
  C:9942H         PUBLIC        Timer_2_Init
  D:00A6H         PUBLIC        P2MDOUT
  C:9AD0H         PUBLIC        Timer_4_Init
  C:8A91H         PUBLIC        _TimerSetTimeout
  D:00CBH         PUBLIC        RCAP2H
  D:00CBH         PUBLIC        RCAP4H
  D:00CAH         PUBLIC        RCAP2L
  D:00CAH         PUBLIC        RCAP4L
  D:00C9H         PUBLIC        TMR2CF
  D:00C9H         PUBLIC        TMR4CF
  D:0089H         PUBLIC        TMOD
  D:0088H         PUBLIC        TCON
  D:00C8H         PUBLIC        TMR2CN
  D:00C8H         PUBLIC        TMR4CN
  D:0097H         PUBLIC        CLKSEL
  C:99BAH         PUBLIC        Timer0GetTimerCounter
  D:008AH         PUBLIC        OSCICN
  B:00C8H.1       PUBLIC        CT2
  B:00A8H.1       PUBLIC        ET0
  B:0088H.5       PUBLIC        TF0
  B:00A8H.5       PUBLIC        ET2
  D:008CH         PUBLIC        TH0
  D:008DH         PUBLIC        TH1
BL51 BANKED LINKER/LOCATER V6.22                                                      04/28/2015  17:26:03  PAGE 41


  D:008CH         PUBLIC        OSCXCN
  D:008AH         PUBLIC        TL0
  B:0088H.4       PUBLIC        TR0
  B:0088H.6       PUBLIC        TR1
  B:00C8H.2       PUBLIC        TR2
  X:0C42H         SYMBOL        TimerStructure
  C:972AH         PUBLIC        Timer_0_ISR
  C:84AFH         PUBLIC        _TimerHasTimeoutExpired
  C:002AH         PUBLIC        Timer_4_ISR
  C:9C1CH         PUBLIC        GetTimerStructPtr
  X:0C46H         PUBLIC        TimerCounter
  D:00CDH         PUBLIC        TMR2H
  D:008EH         PUBLIC        CKCON
  D:00CCH         PUBLIC        TMR2L
  C:8F2FH         PUBLIC        SysClkInit
  C:964EH         PUBLIC        _TimerDelay
  -------         PROC          TIMER_2_INIT
  C:9942H         LINE#         44
  C:9942H         LINE#         45
  C:9942H         LINE#         46
  C:9945H         LINE#         50
  C:9947H         LINE#         54
  C:9949H         LINE#         58
  C:994CH         LINE#         62
  C:994FH         LINE#         63
  C:9952H         LINE#         67
  C:9955H         LINE#         71
  C:9958H         LINE#         72
  C:995BH         LINE#         76
  C:995DH         LINE#         80
  C:995FH         LINE#         81
  -------         ENDPROC       TIMER_2_INIT
  -------         PROC          TIMER_0_INIT
  C:9960H         LINE#         92
  C:9960H         LINE#         93
  C:9960H         LINE#         94
  C:9963H         LINE#         98
  C:9965H         LINE#         102
  C:996DH         LINE#         106
  C:9970H         LINE#         110
  C:9973H         LINE#         111
  C:9976H         LINE#         115
  C:9979H         LINE#         120
  C:997BH         LINE#         124
  C:997DH         LINE#         125
  -------         ENDPROC       TIMER_0_INIT
  -------         PROC          TIMER_0_ISR
  C:972AH         LINE#         136
  C:9730H         LINE#         140
  C:9732H         LINE#         144
  C:9740H         LINE#         148
  C:9743H         LINE#         149
  C:9746H         LINE#         150
  -------         ENDPROC       TIMER_0_ISR
  -------         PROC          TIMER_1_INIT
  C:9B1BH         LINE#         161
  C:9B1BH         LINE#         162
BL51 BANKED LINKER/LOCATER V6.22                                                      04/28/2015  17:26:03  PAGE 42


  C:9B1BH         LINE#         163
  C:9B1EH         LINE#         166
  C:9B21H         LINE#         167
  C:9B24H         LINE#         169
  C:9B27H         LINE#         170
  C:9B2AH         LINE#         171
  C:9B2DH         LINE#         172
  C:9B2FH         LINE#         173
  C:9B32H         LINE#         174
  -------         ENDPROC       TIMER_1_INIT
  -------         PROC          TIMER_4_INIT
  C:9AD0H         LINE#         185
  C:9AD0H         LINE#         186
  C:9AD0H         LINE#         187
  C:9AD3H         LINE#         190
  C:9AD6H         LINE#         193
  C:9AD9H         LINE#         196
  C:9ADCH         LINE#         200
  C:9ADFH         LINE#         203
  C:9AE2H         LINE#         204
  C:9AE5H         LINE#         207
  C:9AE8H         LINE#         208
  -------         ENDPROC       TIMER_4_INIT
  -------         PROC          TIMER_4_ISR
  C:002AH         LINE#         218
  C:002AH         LINE#         220
  -------         ENDPROC       TIMER_4_ISR
  -------         PROC          SYSCLKINIT
  -------         DO            
  X:0DFEH         SYMBOL        Delay
  -------         ENDDO         
  C:8F2FH         LINE#         231
  C:8F2FH         LINE#         232
  C:8F2FH         LINE#         235
  C:8F32H         LINE#         237
  C:8F35H         LINE#         241
  C:8F5DH         LINE#         242
  C:8F60H         LINE#         243
  C:8F63H         LINE#         248
  C:8F66H         LINE#         250
  C:8F69H         LINE#         251
  -------         ENDPROC       SYSCLKINIT
  -------         PROC          _TIMERDELAY
  X:0C3CH         SYMBOL        Delay
  -------         DO            
  X:0C3EH         SYMBOL        DelayTimer
  -------         ENDDO         
  C:964EH         LINE#         262
  C:9656H         LINE#         263
  C:9656H         LINE#         266
  C:9667H         LINE#         267
  C:9674H         LINE#         268
  C:9674H         LINE#         269
  C:9674H         LINE#         272
  -------         ENDPROC       _TIMERDELAY
  -------         PROC          _TIMERSETTIMEOUT
  X:0C80H         SYMBOL        Timer
BL51 BANKED LINKER/LOCATER V6.22                                                      04/28/2015  17:26:03  PAGE 43


  X:0C83H         SYMBOL        Timeout
  C:8A91H         LINE#         282
  C:8AA4H         LINE#         283
  C:8AA4H         LINE#         287
  C:8AB8H         LINE#         289
  C:8AD7H         LINE#         292
  -------         ENDPROC       _TIMERSETTIMEOUT
  -------         PROC          _TIMERHASTIMEOUTEXPIRED
  X:0C85H         SYMBOL        Timer
  -------         DO            
  X:0C88H         SYMBOL        CurrentTime
  -------         ENDDO         
  C:84AFH         LINE#         302
  C:84BAH         LINE#         303
  C:84BAH         LINE#         308
  C:84C5H         LINE#         312
  C:84FFH         LINE#         313
  C:8502H         LINE#         315
  C:8504H         LINE#         317
  -------         ENDPROC       _TIMERHASTIMEOUTEXPIRED
  -------         PROC          GETTIMERSTRUCTPTR
  C:9C1CH         LINE#         327
  C:9C1CH         LINE#         328
  C:9C1CH         LINE#         329
  C:9C22H         LINE#         330
  -------         ENDPROC       GETTIMERSTRUCTPTR
  -------         PROC          TIMER0GETTIMERCOUNTER
  -------         DO            
  X:0E00H         SYMBOL        RetVal
  -------         ENDDO         
  C:99BAH         LINE#         342
  C:99BAH         LINE#         343
  C:99BAH         LINE#         348
  C:99BCH         LINE#         350
  C:99CCH         LINE#         354
  C:99CEH         LINE#         356
  C:99D6H         LINE#         358
  -------         ENDPROC       TIMER0GETTIMERCOUNTER
  -------         PROC          _DIFFTIME
  X:0D13H         SYMBOL        t1
  X:0D15H         SYMBOL        t2
  C:82F2H         LINE#         370
  C:8302H         LINE#         371
  C:8302H         LINE#         372
  C:8319H         LINE#         373
  C:8331H         LINE#         375
  C:834EH         LINE#         376
  -------         ENDPROC       _DIFFTIME
  -------         ENDMOD        TIMERDRV

  -------         MODULE        UARTDRV
  C:0000H         SYMBOL        _ICE_DUMMY_
  C:7389H         PUBLIC        Uart0Isr
  C:0031H         PUBLIC        Uart1Isr
  B:00A8H.7       PUBLIC        EA
  D:0084H         PUBLIC        SFRPAGE
  B:0021H.0       PUBLIC        UartTxBusy
BL51 BANKED LINKER/LOCATER V6.22                                                      04/28/2015  17:26:03  PAGE 44


  X:074AH         PUBLIC        RcvRingBuffer
  B:00B8H.4       PUBLIC        PS
  C:59A4H         PUBLIC        _UartSend
  X:0793H         PUBLIC        UartTxBufferFreeSpace
  X:0794H         PUBLIC        UartTxBufferHead
  B:00A8H.4       PUBLIC        ES0
  X:0795H         PUBLIC        UartTxBuffer
  B:0098H.0       PUBLIC        RI0
  B:0098H.1       PUBLIC        TI0
  X:07F9H         PUBLIC        UartTxBufferTail
  D:0099H         PUBLIC        SBUF0
  D:0098H         PUBLIC        SCON0
  C:91D6H         PUBLIC        Uart0Init
  C:9C23H         PUBLIC        UartGetReceiveBuffer
  D:0091H         PUBLIC        SSTA0
  -------         PROC          UART0INIT
  -------         DO            
  B:0020H.6       SYMBOL        SaveEnableAll
  -------         ENDDO         
  C:91D6H         LINE#         36
  C:91D6H         LINE#         37
  C:91D6H         LINE#         38
  C:91DAH         LINE#         40
  C:91DCH         LINE#         42
  C:91DFH         LINE#         43
  C:91E2H         LINE#         44
  C:91E5H         LINE#         45
  C:91E8H         LINE#         48
  C:91EBH         LINE#         50
  C:91EDH         LINE#         51
  C:91EFH         LINE#         52
  C:91F1H         LINE#         53
  C:91F3H         LINE#         54
  C:91F7H         LINE#         56
  C:91F9H         LINE#         57
  C:91FEH         LINE#         58
  C:9203H         LINE#         59
  C:9209H         LINE#         60
  -------         ENDPROC       UART0INIT
  -------         PROC          UART0ISR
  C:7389H         LINE#         73
  C:7396H         LINE#         76
  C:7398H         LINE#         81
  C:739DH         LINE#         82
  C:73A0H         LINE#         85
  C:73A5H         LINE#         86
  C:73A8H         LINE#         88
  C:73ABH         LINE#         89
  C:73ABH         LINE#         90
  C:73ADH         LINE#         91
  C:73B6H         LINE#         92
  C:73B6H         LINE#         94
  C:73B9H         LINE#         95
  C:73B9H         LINE#         96
  C:73BBH         LINE#         97
  C:73C9H         LINE#         98
  C:73C9H         LINE#         99
BL51 BANKED LINKER/LOCATER V6.22                                                      04/28/2015  17:26:03  PAGE 45


  C:73DCH         LINE#         100
  C:73F9H         LINE#         101
  C:73FFH         LINE#         102
  C:7401H         LINE#         104
  C:7403H         LINE#         105
  C:7403H         LINE#         108
  C:7405H         LINE#         109
  -------         ENDPROC       UART0ISR
  -------         PROC          UART1ISR
  C:0031H         LINE#         119
  C:0031H         LINE#         121
  -------         ENDPROC       UART1ISR
  -------         PROC          _UARTSEND
  X:0C8AH         SYMBOL        Data
  X:0C8DH         SYMBOL        Length
  -------         DO            
  X:0C8EH         SYMBOL        i
  B:0020H.7       SYMBOL        PrevIntStatus
  -------         ENDDO         
  C:59A4H         LINE#         134
  C:59B4H         LINE#         135
  C:59B4H         LINE#         141
  C:59C3H         LINE#         142
  C:59C3H         LINE#         143
  C:59C6H         LINE#         144
  C:59C6H         LINE#         146
  C:59CAH         LINE#         147
  C:59CCH         LINE#         151
  C:59E0H         LINE#         152
  C:59E0H         LINE#         153
  C:5A0AH         LINE#         156
  C:5A27H         LINE#         157
  C:5A2FH         LINE#         161
  C:5A42H         LINE#         166
  C:5A45H         LINE#         167
  C:5A45H         LINE#         168
  C:5A47H         LINE#         169
  C:5A5AH         LINE#         170
  C:5A77H         LINE#         171
  C:5A7DH         LINE#         172
  C:5A7DH         LINE#         174
  C:5A81H         LINE#         175
  C:5A83H         LINE#         176
  -------         ENDPROC       _UARTSEND
  -------         PROC          UARTGETRECEIVEBUFFER
  C:9C23H         LINE#         190
  C:9C23H         LINE#         191
  C:9C23H         LINE#         192
  C:9C29H         LINE#         193
  -------         ENDPROC       UARTGETRECEIVEBUFFER
  -------         ENDMOD        UARTDRV

  -------         MODULE        SPIDRV
  C:0000H         SYMBOL        _ICE_DUMMY_
  D:009DH         PUBLIC        SPI0CKR
  D:00A0H         PUBLIC        P2
  D:00E6H         PUBLIC        EIE1
BL51 BANKED LINKER/LOCATER V6.22                                                      04/28/2015  17:26:03  PAGE 46


  D:0084H         PUBLIC        SFRPAGE
  D:00A6H         PUBLIC        P2MDOUT
  D:00A7H         PUBLIC        P3MDOUT
  D:00F6H         PUBLIC        EIP1
  C:908DH         PUBLIC        _SpiSelectSlave
  B:0020H.2       PUBLIC        SpiInUse
  B:00F8H.5       PUBLIC        MODF
  X:07FAH         PUBLIC        SpiIndex
  D:00F8H         PUBLIC        SPI0CN
  B:00F8H.7       PUBLIC        SPIF
  B:00F8H.6       PUBLIC        WCOL
  C:9C07H         PUBLIC        SpiLock
  C:7E69H         PUBLIC        _SpiSend
  C:9B87H         PUBLIC        _SpiSetCommWithA2D
  C:99D7H         PUBLIC        SpiInit
  X:07FBH         PUBLIC        EndSpiTransactionCallBack
  X:07FEH         PUBLIC        SpiDataLen
  X:07FFH         PUBLIC        SpiRxBuffer
  X:0801H         PUBLIC        SpiTxBuffer
  C:4EF4H         PUBLIC        SpiIsr
  B:0020H.3       PUBLIC        CommWithA2D
  X:0865H         PUBLIC        SelectSlaveArray
  D:009AH         PUBLIC        SPI0CFG
  X:0879H         PUBLIC        Delay
  B:00F8H.4       PUBLIC        RXOVRN
  D:009BH         PUBLIC        SPI0DAT
  C:9C2AH         PUBLIC        SpiGetTxBuffer
  C:0016H         PUBLIC        SpiUnLock
  -------         PROC          SPIINIT
  C:99D7H         LINE#         71
  C:99D7H         LINE#         72
  C:99D7H         LINE#         73
  C:99D9H         LINE#         74
  C:99DBH         LINE#         76
  C:99DEH         LINE#         77
  C:99E1H         LINE#         78
  C:99E4H         LINE#         79
  C:99E7H         LINE#         82
  C:99EAH         LINE#         85
  C:99EDH         LINE#         88
  C:99F0H         LINE#         91
  C:99F3H         LINE#         92
  -------         ENDPROC       SPIINIT
  -------         PROC          _SPISEND
  X:0BD2H         SYMBOL        DataLength
  X:0BD4H         SYMBOL        DataIn
  X:0BD7H         SYMBOL        EndTransactionCallBack
  C:7E69H         LINE#         102
  C:7E7CH         LINE#         103
  C:7E7CH         LINE#         104
  C:7E7FH         LINE#         108
  C:7E82H         LINE#         112
  C:7E99H         LINE#         113
  C:7EA6H         LINE#         114
  C:7EBCH         LINE#         116
  C:7EC1H         LINE#         120
  C:7ED6H         LINE#         124
BL51 BANKED LINKER/LOCATER V6.22                                                      04/28/2015  17:26:03  PAGE 47


  C:7ED9H         LINE#         126
  C:7EDBH         LINE#         127
  -------         ENDPROC       _SPISEND
  -------         PROC          SPIISR
  C:4EF4H         LINE#         137
  C:4F01H         LINE#         139
  C:4F07H         LINE#         140
  C:4F07H         LINE#         142
  C:4F09H         LINE#         144
  C:4F0CH         LINE#         145
  C:4F0CH         LINE#         147
  C:4F16H         LINE#         148
  C:4F16H         LINE#         151
  C:4F3EH         LINE#         153
  C:4F4DH         LINE#         154
  C:4F4DH         LINE#         155
  C:4F50H         LINE#         156
  C:4F50H         LINE#         158
  C:4F68H         LINE#         162
  C:4F72H         LINE#         163
  C:4F72H         LINE#         165
  C:4F89H         LINE#         167
  C:4F8BH         LINE#         169
  C:4F8BH         LINE#         170
  C:4F99H         LINE#         171
  C:4F99H         LINE#         172
  C:4FB1H         LINE#         174
  C:4FB1H         LINE#         175
  C:4FB1H         LINE#         176
  C:4FB1H         LINE#         178
  C:4FB4H         LINE#         179
  C:4FB4H         LINE#         180
  C:4FB6H         LINE#         181
  C:4FCEH         LINE#         183
  C:4FCEH         LINE#         185
  C:4FD1H         LINE#         186
  C:4FD1H         LINE#         187
  C:4FD3H         LINE#         188
  C:4FEBH         LINE#         190
  C:4FEBH         LINE#         192
  C:4FEEH         LINE#         193
  C:4FEEH         LINE#         194
  C:4FF0H         LINE#         195
  C:5006H         LINE#         197
  C:5006H         LINE#         198
  -------         ENDPROC       SPIISR
  -------         PROC          SPILOCK
  C:9C07H         LINE#         211
  C:9C07H         LINE#         212
  C:9C07H         LINE#         214
  C:9C0AH         LINE#         215
  C:9C0DH         LINE#         218
  C:9C0FH         LINE#         220
  C:9C11H         LINE#         221
  -------         ENDPROC       SPILOCK
  -------         PROC          SPIUNLOCK
  C:0016H         LINE#         236
BL51 BANKED LINKER/LOCATER V6.22                                                      04/28/2015  17:26:03  PAGE 48


  C:0016H         LINE#         237
  C:0016H         LINE#         238
  C:0018H         LINE#         239
  -------         ENDPROC       SPIUNLOCK
  -------         PROC          _SPISELECTSLAVE
  X:0E02H         SYMBOL        SlaveID
  X:0E03H         SYMBOL        Select
  C:908DH         LINE#         253
  C:9097H         LINE#         254
  C:9097H         LINE#         256
  C:90A0H         LINE#         257
  C:90A0H         LINE#         258
  C:90BAH         LINE#         259
  C:90BBH         LINE#         261
  C:90BBH         LINE#         262
  C:90C5H         LINE#         263
  C:90C5H         LINE#         264
  -------         ENDPROC       _SPISELECTSLAVE
  -------         PROC          SPIGETTXBUFFER
  C:9C2AH         LINE#         274
  C:9C2AH         LINE#         275
  C:9C2AH         LINE#         276
  C:9C30H         LINE#         277
  -------         ENDPROC       SPIGETTXBUFFER
  -------         PROC          _SPISETCOMMWITHA2D
  X:0E26H         SYMBOL        State
  C:9B87H         LINE#         288
  C:9B8CH         LINE#         289
  C:9B8CH         LINE#         290
  C:9B96H         LINE#         291
  -------         ENDPROC       _SPISETCOMMWITHA2D
  -------         ENDMOD        SPIDRV

  -------         MODULE        A2D
  C:0000H         SYMBOL        _ICE_DUMMY_
  D:00BCH         PUBLIC        ADC0CF
  D:00BCH         PUBLIC        ADC2CF
  B:00A8H.7       PUBLIC        EA
  D:00E7H         PUBLIC        EIE2
  D:00E8H         PUBLIC        ADC0CN
  D:0084H         PUBLIC        SFRPAGE
  D:00E8H         PUBLIC        ADC2CN
  C:000EH         PUBLIC        SetA2D0BufferReadiness
  D:00D1H         PUBLIC        REF0CN
  X:09F6H         SYMBOL        A2D0SamplesBuffer
  D:00BAH         PUBLIC        AMX0CF
  B:00E8H.5       PUBLIC        AD0INT
  X:0A08H         SYMBOL        A2D2SamplesBuffer
  D:00BAH         PUBLIC        AMX2CF
  B:00E8H.5       PUBLIC        AD2INT
  C:923EH         PUBLIC        _A2D0_GetReading
  C:8EB6H         PUBLIC        _A2D2_GetReading
  C:9C12H         PUBLIC        A2D_Init
  D:00BBH         PUBLIC        AMX0SL
  D:00BBH         PUBLIC        AMX2SL
  X:0A10H         SYMBOL        A2D0SelectAnalogInputArray
  X:0A19H         SYMBOL        A2D2SelectAnalogInputArray
BL51 BANKED LINKER/LOCATER V6.22                                                      04/28/2015  17:26:03  PAGE 49


  B:0021H.2       PUBLIC        A2D0BufferReady
  D:00BFH         PUBLIC        ADC0H
  D:00BEH         PUBLIC        ADC0L
  C:9C45H         PUBLIC        GetA2D0SelectedInput
  X:0A21H         SYMBOL        A2D0CurrentAnalogPin
  X:0A22H         SYMBOL        A2D2CurrentAnalogPin
  C:920AH         PUBLIC        A2D0_Init
  C:93C7H         PUBLIC        A2D2_Init
  C:969CH         PUBLIC        A2D0_SelectNextInput
  C:9533H         PUBLIC        A2D2_SelectNextInput
  C:71EAH         PUBLIC        A2D0_Isr
  C:916DH         PUBLIC        A2D2_Isr
  D:00BEH         PUBLIC        ADC2
  C:001EH         PUBLIC        IsA2D0BufferReady
  -------         PROC          A2D_INIT
  C:9C12H         LINE#         54
  C:9C12H         LINE#         55
  C:9C12H         LINE#         57
  C:9C15H         LINE#         59
  C:9C18H         LINE#         60
  C:9C1BH         LINE#         61
  -------         ENDPROC       A2D_INIT
  -------         PROC          A2D0_INIT
  C:920AH         LINE#         71
  C:920AH         LINE#         72
  C:920AH         LINE#         73
  C:920DH         LINE#         76
  C:9210H         LINE#         80
  C:9213H         LINE#         83
  C:9218H         LINE#         84
  C:921BH         LINE#         87
  C:921EH         LINE#         90
  C:922DH         LINE#         93
  C:9230H         LINE#         96
  C:9233H         LINE#         97
  C:9236H         LINE#         100
  C:9238H         LINE#         102
  C:923AH         LINE#         104
  C:923DH         LINE#         105
  -------         ENDPROC       A2D0_INIT
  -------         PROC          A2D2_INIT
  C:93C7H         LINE#         108
  C:93C7H         LINE#         109
  C:93C7H         LINE#         110
  C:93CAH         LINE#         113
  C:93CDH         LINE#         116
  C:93D0H         LINE#         119
  C:93D5H         LINE#         120
  C:93D8H         LINE#         123
  C:93E7H         LINE#         126
  C:93EAH         LINE#         129
  C:93EDH         LINE#         130
  C:93F0H         LINE#         133
  C:93F2H         LINE#         135
  C:93F5H         LINE#         136
  -------         ENDPROC       A2D2_INIT
  -------         PROC          A2D0_ISR
BL51 BANKED LINKER/LOCATER V6.22                                                      04/28/2015  17:26:03  PAGE 50


  C:71EAH         LINE#         146
  C:71F5H         LINE#         149
  C:71F8H         LINE#         152
  C:71FAH         LINE#         155
  C:7214H         LINE#         156
  C:723BH         LINE#         157
  C:7268H         LINE#         160
  C:726BH         LINE#         162
  C:726DH         LINE#         163
  -------         ENDPROC       A2D0_ISR
  -------         PROC          A2D2_ISR
  C:916DH         LINE#         172
  C:917AH         LINE#         175
  C:917DH         LINE#         178
  C:917FH         LINE#         181
  C:9191H         LINE#         184
  C:9194H         LINE#         187
  C:9197H         LINE#         188
  -------         ENDPROC       A2D2_ISR
  -------         PROC          _A2D0_GETREADING
  X:0DC1H         SYMBOL        AnalogInNum
  -------         DO            
  X:0DC2H         SYMBOL        RetVal
  -------         ENDDO         
  C:923EH         LINE#         201
  C:9243H         LINE#         202
  C:9243H         LINE#         206
  C:9246H         LINE#         209
  C:9264H         LINE#         212
  C:9267H         LINE#         214
  C:926FH         LINE#         215
  -------         ENDPROC       _A2D0_GETREADING
  -------         PROC          _A2D2_GETREADING
  X:0DC4H         SYMBOL        AnalogInNum
  -------         DO            
  X:0DC5H         SYMBOL        RetVal
  -------         ENDDO         
  C:8EB6H         LINE#         217
  C:8EBBH         LINE#         218
  C:8EBBH         LINE#         221
  C:8EBEH         LINE#         223
  C:8ED9H         LINE#         225
  C:8EDCH         LINE#         228
  C:8EF2H         LINE#         229
  -------         ENDPROC       _A2D2_GETREADING
  -------         PROC          A2D0_SELECTNEXTINPUT
  C:969CH         LINE#         242
  C:969CH         LINE#         243
  C:969CH         LINE#         245
  C:96A7H         LINE#         246
  C:96ACH         LINE#         249
  C:96BFH         LINE#         250
  -------         ENDPROC       A2D0_SELECTNEXTINPUT
  -------         PROC          A2D2_SELECTNEXTINPUT
  C:9533H         LINE#         252
  C:9538H         LINE#         255
  C:9543H         LINE#         256
BL51 BANKED LINKER/LOCATER V6.22                                                      04/28/2015  17:26:03  PAGE 51


  C:9548H         LINE#         259
  C:955BH         LINE#         260
  -------         ENDPROC       A2D2_SELECTNEXTINPUT
  -------         PROC          ISA2D0BUFFERREADY
  C:001EH         LINE#         262
  C:001EH         LINE#         263
  C:001EH         LINE#         264
  C:0020H         LINE#         265
  -------         ENDPROC       ISA2D0BUFFERREADY
  -------         PROC          SETA2D0BUFFERREADINESS
  B:0021H.1       SYMBOL        Status
  C:000EH         LINE#         267
  C:000EH         LINE#         268
  C:000EH         LINE#         269
  C:0012H         LINE#         270
  -------         ENDPROC       SETA2D0BUFFERREADINESS
  -------         PROC          GETA2D0SELECTEDINPUT
  C:9C45H         LINE#         272
  C:9C45H         LINE#         273
  C:9C45H         LINE#         274
  C:9C4AH         LINE#         275
  -------         ENDPROC       GETA2D0SELECTEDINPUT
  -------         ENDMOD        A2D

  -------         MODULE        SPI_A2D
  C:0000H         SYMBOL        _ICE_DUMMY_
  D:00E6H         PUBLIC        EIE1
  C:751EH         PUBLIC        SpiA2D_GetSwVersionBySpi
  C:7042H         PUBLIC        _SpiA2D_GetBlockReadings
  D:0084H         PUBLIC        SFRPAGE
  D:00D1H         PUBLIC        REF0CN
  C:8CB9H         PUBLIC        _SpiA2D_GetReading
  X:087AH         PUBLIC        DataIsValid
  C:8F6AH         PUBLIC        SpiA2D_GetVersionCMDStatus
  C:974DH         PUBLIC        _SpiA2D_CallBack
  C:8B1FH         PUBLIC        SpiA2D_GetValuesCMDStatus
  C:869EH         PUBLIC        AreRetriesNeeded_GetSwVer
  C:6C36H         PUBLIC        SpiA2D_GetValuesBySpi
  C:9586H         PUBLIC        SpiA2D_GetFreeBuffer
  X:087BH         PUBLIC        A2DTransactionStatus
  X:087CH         PUBLIC        A2DRxBufferSW_Version
  X:087FH         PUBLIC        RxBufferNum
  C:6E94H         PUBLIC        _SpiA2D_Task
  C:864FH         PUBLIC        SpiA2D_Init
  C:8FDFH         PUBLIC        _SpiA2D_GetSW_Version
  X:0880H         PUBLIC        A2DRxBuffer
  X:08E2H         PUBLIC        A2D_SW_VersionBuffer
  X:08E4H         PUBLIC        GetVersionRetries
  X:08E5H         PUBLIC        A2DSamplesBuffer
  C:9C4BH         PUBLIC        SpiA2D_IsDataValid
  -------         PROC          SPIA2D_INIT
  C:864FH         LINE#         69
  C:864FH         LINE#         70
  C:864FH         LINE#         72
  C:865EH         LINE#         73
  C:866DH         LINE#         74
  C:867CH         LINE#         78
BL51 BANKED LINKER/LOCATER V6.22                                                      04/28/2015  17:26:03  PAGE 52


  C:8688H         LINE#         80
  C:868DH         LINE#         82
  C:8692H         LINE#         84
  C:8695H         LINE#         87
  C:8698H         LINE#         89
  C:869DH         LINE#         93
  -------         ENDPROC       SPIA2D_INIT
  -------         PROC          _SPIA2D_TASK
  X:0E27H         SYMBOL        Arg
  -------         DO            
  -------         ENDDO         
  C:6E94H         LINE#         102
  C:6E99H         LINE#         103
  C:6E99H         LINE#         112
  C:6EB2H         LINE#         113
  C:6EB2H         LINE#         114
  C:6EB2H         LINE#         115
  C:6EB8H         LINE#         116
  C:6EBEH         LINE#         118
  C:6EC3H         LINE#         119
  C:6EC4H         LINE#         121
  C:6EC4H         LINE#         122
  C:6ECCH         LINE#         123
  C:6ECCH         LINE#         124
  C:6ED3H         LINE#         125
  C:6EDAH         LINE#         127
  C:6EDFH         LINE#         129
  C:6EE8H         LINE#         130
  C:6EE9H         LINE#         132
  C:6EEEH         LINE#         133
  C:6EEFH         LINE#         135
  C:6EEFH         LINE#         136
  C:6EF5H         LINE#         137
  C:6EFBH         LINE#         139
  C:6F00H         LINE#         140
  C:6F01H         LINE#         142
  C:6F01H         LINE#         143
  C:6F09H         LINE#         144
  C:6F09H         LINE#         145
  C:6F0EH         LINE#         146
  C:6F17H         LINE#         147
  C:6F18H         LINE#         149
  C:6F1DH         LINE#         150
  C:6F1EH         LINE#         152
  C:6F1EH         LINE#         153
  C:6F23H         LINE#         154
  C:6F23H         LINE#         156
  C:6F23H         LINE#         158
  -------         ENDPROC       _SPIA2D_TASK
  -------         PROC          SPIA2D_GETVALUESBYSPI
  -------         DO            
  X:0DC7H         SYMBOL        Message
  X:0DC9H         SYMBOL        i
  -------         ENDDO         
  C:6C36H         LINE#         168
  C:6C36H         LINE#         169
  C:6C36H         LINE#         174
BL51 BANKED LINKER/LOCATER V6.22                                                      04/28/2015  17:26:03  PAGE 53


  C:6C3DH         LINE#         175
  C:6C40H         LINE#         179
  C:6C46H         LINE#         183
  C:6C55H         LINE#         184
  C:6C64H         LINE#         185
  C:6C75H         LINE#         186
  C:6C9AH         LINE#         188
  C:6C9FH         LINE#         192
  C:6CA6H         LINE#         196
  C:6CCDH         LINE#         198
  C:6CCFH         LINE#         199
  -------         ENDPROC       SPIA2D_GETVALUESBYSPI
  -------         PROC          SPIA2D_GETSWVERSIONBYSPI
  -------         DO            
  X:0E04H         SYMBOL        Message
  -------         ENDDO         
  C:751EH         LINE#         208
  C:751EH         LINE#         209
  C:751EH         LINE#         214
  C:7525H         LINE#         215
  C:7528H         LINE#         219
  C:752EH         LINE#         223
  C:753DH         LINE#         225
  C:754CH         LINE#         228
  C:755BH         LINE#         229
  C:756BH         LINE#         231
  C:7570H         LINE#         235
  C:7577H         LINE#         239
  C:75A1H         LINE#         241
  C:75A3H         LINE#         242
  -------         ENDPROC       SPIA2D_GETSWVERSIONBYSPI
  -------         PROC          _SPIA2D_CALLBACK
  X:0E28H         SYMBOL        Status
  C:974DH         LINE#         252
  C:9757H         LINE#         254
  C:975FH         LINE#         255
  C:9767H         LINE#         257
  C:976DH         LINE#         258
  -------         ENDPROC       _SPIA2D_CALLBACK
  -------         PROC          SPIA2D_GETVALUESCMDSTATUS
  C:8B1FH         LINE#         269
  C:8B1FH         LINE#         270
  C:8B1FH         LINE#         273
  C:8B28H         LINE#         274
  C:8B2BH         LINE#         278
  C:8B32H         LINE#         280
  C:8B37H         LINE#         282
  C:8B56H         LINE#         284
  C:8B5CH         LINE#         288
  C:8B5FH         LINE#         290
  C:8B64H         LINE#         292
  -------         ENDPROC       SPIA2D_GETVALUESCMDSTATUS
  -------         PROC          SPIA2D_GETVERSIONCMDSTATUS
  C:8F6AH         LINE#         294
  C:8F6AH         LINE#         295
  C:8F6AH         LINE#         296
  C:8F73H         LINE#         297
BL51 BANKED LINKER/LOCATER V6.22                                                      04/28/2015  17:26:03  PAGE 54


  C:8F76H         LINE#         299
  C:8F7DH         LINE#         301
  C:8F82H         LINE#         303
  C:8F8CH         LINE#         304
  C:8F96H         LINE#         306
  C:8F9CH         LINE#         308
  C:8F9FH         LINE#         310
  C:8FA4H         LINE#         311
  -------         ENDPROC       SPIA2D_GETVERSIONCMDSTATUS
  -------         PROC          _SPIA2D_GETREADING
  X:0DCAH         SYMBOL        AnalogInNum
  -------         DO            
  X:0DCBH         SYMBOL        RetVal
  -------         ENDDO         
  C:8CB9H         LINE#         324
  C:8CBEH         LINE#         325
  C:8CBEH         LINE#         328
  C:8CC1H         LINE#         330
  C:8CEEH         LINE#         334
  C:8CF1H         LINE#         336
  C:8CF9H         LINE#         337
  -------         ENDPROC       _SPIA2D_GETREADING
  -------         PROC          _SPIA2D_GETBLOCKREADINGS
  X:0C48H         SYMBOL        FirstAnalogIn
  X:0C49H         SYMBOL        LastAnalogIn
  X:0C4BH         SYMBOL        Buffer
  C:7042H         LINE#         351
  C:705AH         LINE#         352
  C:705AH         LINE#         354
  C:705DH         LINE#         358
  C:70CCH         LINE#         362
  C:70CFH         LINE#         365
  -------         ENDPROC       _SPIA2D_GETBLOCKREADINGS
  -------         PROC          _SPIA2D_GETSW_VERSION
  X:0C4EH         SYMBOL        ExternalVer
  X:0C51H         SYMBOL        InternalVer
  C:8FDFH         LINE#         367
  C:8FEAH         LINE#         368
  C:8FEAH         LINE#         369
  C:8FEDH         LINE#         371
  C:9001H         LINE#         372
  C:9015H         LINE#         374
  C:9018H         LINE#         375
  -------         ENDPROC       _SPIA2D_GETSW_VERSION
  -------         PROC          SPIA2D_GETFREEBUFFER
  C:9586H         LINE#         385
  C:9586H         LINE#         386
  C:9586H         LINE#         387
  C:9595H         LINE#         388
  C:95ADH         LINE#         389
  -------         ENDPROC       SPIA2D_GETFREEBUFFER
  -------         PROC          SPIA2D_ISDATAVALID
  C:9C4BH         LINE#         391
  C:9C4BH         LINE#         392
  C:9C4BH         LINE#         393
  C:9C50H         LINE#         394
  -------         ENDPROC       SPIA2D_ISDATAVALID
BL51 BANKED LINKER/LOCATER V6.22                                                      04/28/2015  17:26:03  PAGE 55


  -------         PROC          ARERETRIESNEEDED_GETSWVER
  -------         DO            
  X:0E06H         SYMBOL        ExternalVer
  X:0E07H         SYMBOL        InternalVer
  -------         ENDDO         
  C:869EH         LINE#         396
  C:869EH         LINE#         397
  C:869EH         LINE#         400
  C:86A3H         LINE#         401
  C:86A8H         LINE#         403
  C:86CEH         LINE#         405
  C:86E1H         LINE#         406
  C:86E1H         LINE#         407
  C:86E7H         LINE#         408
  C:86EAH         LINE#         409
  C:86EAH         LINE#         411
  C:86ECH         LINE#         412
  -------         ENDPROC       ARERETRIESNEEDED_GETSWVER
  -------         ENDMOD        SPI_A2D

  -------         MODULE        HEADDATA
  C:0000H         SYMBOL        _ICE_DUMMY_
  X:0210H         PUBLIC        SetHeadDataTaskHandle
  C:2B8CH         PUBLIC        _HeadData_SetHeadDataTask
  X:0211H         PUBLIC        SetHeadDataTaskParams
  X:024BH         PUBLIC        SIZE_OF_HEAD_DATA
  C:35FFH         PUBLIC        HeadData_ReadDataFromAllE2PROMs
  X:024CH         PUBLIC        SetHeadDataError
  X:024DH         PUBLIC        SIZE_OF_HEAD_DATA_WITHOUT_CS
  X:024EH         PUBLIC        BackupSecondWrite
  C:9C51H         PUBLIC        HeadData_GetHeadDataTaskHandle
  X:024FH         PUBLIC        HeadsValidData
  X:0250H         PUBLIC        DataLength
  X:0251H         PUBLIC        HeadsData
  C:7C17H         PUBLIC        _HeadData_GetHeadData
  C:95AEH         PUBLIC        HeadData_Init
  X:0409H         PUBLIC        SecondWrite
  C:6F24H         PUBLIC        _HeadData_SetHeadDataTaskParams
  -------         PROC          HEADDATA_INIT
  C:95AEH         LINE#         93
  C:95AEH         LINE#         94
  C:95AEH         LINE#         95
  C:95B4H         LINE#         96
  C:95C2H         LINE#         97
  C:95D0H         LINE#         99
  C:95D5H         LINE#         100
  -------         ENDPROC       HEADDATA_INIT
  -------         PROC          HEADDATA_READDATAFROMALLE2PROMS
  -------         DO            
  X:0B85H         SYMBOL        i
  X:0B86H         SYMBOL        Length
  X:0B87H         SYMBOL        CurrLength
  X:0B88H         SYMBOL        Address
  X:0B8AH         SYMBOL        Data
  X:0B8CH         SYMBOL        CheckSum
  -------         DO            
  X:0B8EH         SYMBOL        Msg
BL51 BANKED LINKER/LOCATER V6.22                                                      04/28/2015  17:26:03  PAGE 56


  -------         ENDDO         
  -------         ENDDO         
  C:35FFH         LINE#         111
  C:35FFH         LINE#         112
  C:35FFH         LINE#         118
  C:3606H         LINE#         120
  C:3619H         LINE#         121
  C:3619H         LINE#         123
  C:362DH         LINE#         124
  C:365CH         LINE#         126
  C:3684H         LINE#         128
  C:36BCH         LINE#         129
  C:36BCH         LINE#         131
  C:36D0H         LINE#         132
  C:36FFH         LINE#         134
  C:3727H         LINE#         135
  C:3762H         LINE#         136
  C:3762H         LINE#         138
  C:376CH         LINE#         139
  C:3774H         LINE#         140
  C:3794H         LINE#         142
  C:37A2H         LINE#         143
  C:37A2H         LINE#         144
  C:37ADH         LINE#         145
  C:37BAH         LINE#         147
  C:37D2H         LINE#         149
  C:37FBH         LINE#         150
  C:3808H         LINE#         152
  C:381BH         LINE#         153
  C:382EH         LINE#         154
  C:3841H         LINE#         155
  C:3844H         LINE#         158
  C:3862H         LINE#         159
  C:3862H         LINE#         160
  C:3864H         LINE#         162
  C:3864H         LINE#         164
  C:3882H         LINE#         165
  C:3882H         LINE#         166
  C:388BH         LINE#         168
  C:3895H         LINE#         169
  C:3895H         LINE#         172
  C:389BH         LINE#         173
  C:38A5H         LINE#         174
  C:38C2H         LINE#         175
  C:38C2H         LINE#         176
  -------         ENDPROC       HEADDATA_READDATAFROMALLE2PROMS
  -------         PROC          _HEADDATA_GETHEADDATA
  X:0C8FH         SYMBOL        HeadNum
  X:0C91H         SYMBOL        Data
  C:7C17H         LINE#         186
  C:7C2AH         LINE#         187
  C:7C2AH         LINE#         189
  C:7C72H         LINE#         191
  C:7C8EH         LINE#         192
  -------         ENDPROC       _HEADDATA_GETHEADDATA
  -------         PROC          _HEADDATA_SETHEADDATATASKPARAMS
  X:0C54H         SYMBOL        DestId
BL51 BANKED LINKER/LOCATER V6.22                                                      04/28/2015  17:26:03  PAGE 57


  X:0C55H         SYMBOL        TransactionId
  X:0C56H         SYMBOL        HeadNum
  X:0C57H         SYMBOL        HeadData
  C:6F24H         LINE#         202
  C:6F33H         LINE#         203
  C:6F33H         LINE#         204
  C:6F3DH         LINE#         205
  C:6F47H         LINE#         206
  C:6F51H         LINE#         207
  C:6F7EH         LINE#         210
  C:6F99H         LINE#         212
  C:6F9EH         LINE#         213
  C:6FA3H         LINE#         214
  C:6FA8H         LINE#         215
  C:6FB2H         LINE#         216
  -------         ENDPROC       _HEADDATA_SETHEADDATATASKPARAMS
  -------         PROC          _HEADDATA_SETHEADDATATASK
  X:094DH         SYMBOL        State
  -------         DO            
  X:094EH         SYMBOL        CurrLength
  X:020CH         SYMBOL        Address
  X:020EH         SYMBOL        Data
  X:094FH         SYMBOL        VerifyData
  -------         DO            
  X:0986H         SYMBOL        Msg
  X:0986H         SYMBOL        Msg
  -------         ENDDO         
  -------         DO            
  X:0986H         SYMBOL        Msg
  -------         ENDDO         
  -------         ENDDO         
  C:2B8CH         LINE#         227
  C:2B91H         LINE#         228
  C:2B91H         LINE#         248
  C:2BBCH         LINE#         249
  C:2BBCH         LINE#         250
  C:2BBCH         LINE#         251
  C:2BBCH         LINE#         252
  C:2BC7H         LINE#         253
  C:2BCDH         LINE#         255
  C:2BD2H         LINE#         256
  C:2BD2H         LINE#         257
  C:2BD3H         LINE#         259
  C:2BD3H         LINE#         260
  C:2BD3H         LINE#         261
  C:2BE0H         LINE#         262
  C:2BE6H         LINE#         264
  C:2BEBH         LINE#         265
  C:2BEBH         LINE#         266
  C:2BECH         LINE#         268
  C:2BECH         LINE#         269
  C:2BECH         LINE#         270
  C:2BF7H         LINE#         271
  C:2C11H         LINE#         273
  C:2C1BH         LINE#         276
  C:2C44H         LINE#         277
  C:2C4AH         LINE#         279
BL51 BANKED LINKER/LOCATER V6.22                                                      04/28/2015  17:26:03  PAGE 58


  C:2C4FH         LINE#         280
  C:2C4FH         LINE#         281
  C:2C50H         LINE#         283
  C:2C50H         LINE#         284
  C:2C50H         LINE#         285
  C:2C60H         LINE#         286
  C:2C60H         LINE#         287
  C:2C67H         LINE#         289
  C:2C7AH         LINE#         290
  C:2C8DH         LINE#         291
  C:2CA0H         LINE#         293
  C:2CABH         LINE#         294
  C:2CABH         LINE#         295
  C:2CB0H         LINE#         296
  C:2CB1H         LINE#         298
  C:2CB1H         LINE#         300
  C:2CCBH         LINE#         301
  C:2CCBH         LINE#         302
  C:2CD4H         LINE#         303
  C:2CD9H         LINE#         304
  C:2CDBH         LINE#         306
  C:2CDBH         LINE#         307
  C:2CE3H         LINE#         308
  C:2CE8H         LINE#         309
  C:2CE8H         LINE#         311
  C:2CF2H         LINE#         312
  C:2CFEH         LINE#         313
  C:2CFEH         LINE#         314
  C:2CFFH         LINE#         316
  C:2D04H         LINE#         317
  C:2D04H         LINE#         318
  C:2D05H         LINE#         320
  C:2D05H         LINE#         321
  C:2D05H         LINE#         322
  C:2D19H         LINE#         323
  C:2D1FH         LINE#         325
  C:2D24H         LINE#         326
  C:2D24H         LINE#         327
  C:2D25H         LINE#         329
  C:2D25H         LINE#         330
  C:2D25H         LINE#         331
  C:2D42H         LINE#         332
  C:2D42H         LINE#         333
  C:2D60H         LINE#         334
  C:2D60H         LINE#         335
  C:2D65H         LINE#         336
  C:2D66H         LINE#         338
  C:2D66H         LINE#         339
  C:2D6EH         LINE#         340
  C:2D6EH         LINE#         341
  C:2D7CH         LINE#         342
  C:2D81H         LINE#         343
  C:2D82H         LINE#         345
  C:2D82H         LINE#         346
  C:2D88H         LINE#         347
  C:2D8DH         LINE#         348
  C:2D8DH         LINE#         349
BL51 BANKED LINKER/LOCATER V6.22                                                      04/28/2015  17:26:03  PAGE 59


  C:2D8DH         LINE#         350
  C:2D8EH         LINE#         352
  C:2D93H         LINE#         353
  C:2D93H         LINE#         354
  C:2D94H         LINE#         356
  C:2D94H         LINE#         357
  C:2D94H         LINE#         358
  C:2DA8H         LINE#         359
  C:2DAEH         LINE#         361
  C:2DB3H         LINE#         362
  C:2DB3H         LINE#         363
  C:2DB4H         LINE#         365
  C:2DB4H         LINE#         366
  C:2DB4H         LINE#         367
  C:2DD4H         LINE#         368
  C:2DD4H         LINE#         369
  C:2DF2H         LINE#         370
  C:2DF2H         LINE#         372
  C:2E34H         LINE#         373
  C:2E55H         LINE#         375
  C:2E5AH         LINE#         376
  C:2E5BH         LINE#         378
  C:2E5BH         LINE#         379
  C:2E63H         LINE#         380
  C:2E63H         LINE#         381
  C:2E71H         LINE#         382
  C:2E76H         LINE#         383
  C:2E77H         LINE#         385
  C:2E77H         LINE#         386
  C:2E80H         LINE#         387
  C:2E86H         LINE#         388
  C:2E8BH         LINE#         389
  C:2E8BH         LINE#         390
  C:2E8BH         LINE#         391
  C:2E8CH         LINE#         393
  C:2E91H         LINE#         394
  C:2E91H         LINE#         395
  C:2E92H         LINE#         397
  C:2E92H         LINE#         398
  C:2E92H         LINE#         401
  C:2E98H         LINE#         402
  C:2E9EH         LINE#         403
  C:2EA3H         LINE#         405
  C:2ECDH         LINE#         406
  C:2ECDH         LINE#         407
  C:2ED5H         LINE#         408
  C:2ED5H         LINE#         409
  C:2EDAH         LINE#         410
  C:2EDFH         LINE#         411
  C:2EE0H         LINE#         413
  C:2EE5H         LINE#         414
  C:2EE6H         LINE#         416
  C:2EEBH         LINE#         417
  C:2EEBH         LINE#         418
  C:2EECH         LINE#         420
  C:2EECH         LINE#         421
  C:2EECH         LINE#         424
BL51 BANKED LINKER/LOCATER V6.22                                                      04/28/2015  17:26:03  PAGE 60


  C:2EF2H         LINE#         425
  C:2EFCH         LINE#         426
  C:2F06H         LINE#         428
  C:2F26H         LINE#         429
  C:2F26H         LINE#         430
  C:2F2BH         LINE#         431
  C:2F30H         LINE#         432
  C:2F31H         LINE#         434
  C:2F36H         LINE#         435
  C:2F36H         LINE#         436
  C:2F37H         LINE#         438
  C:2F37H         LINE#         439
  C:2F3CH         LINE#         440
  C:2F3CH         LINE#         441
  C:2F3CH         LINE#         442
  -------         ENDPROC       _HEADDATA_SETHEADDATATASK
  -------         PROC          HEADDATA_GETHEADDATATASKHANDLE
  C:9C51H         LINE#         452
  C:9C51H         LINE#         453
  C:9C51H         LINE#         454
  C:9C56H         LINE#         455
  -------         ENDPROC       HEADDATA_GETHEADDATATASKHANDLE
  -------         ENDMOD        HEADDATA

  -------         MODULE        HEATERCONTROL
  C:0000H         SYMBOL        _ICE_DUMMY_
  C:8235H         PUBLIC        _HeatersActivationTask
  D:00B0H         PUBLIC        P3
  X:065BH         PUBLIC        bKeepHeatingEvenOpenOrShortCircuit
  X:065CH         PUBLIC        HeatersHighThreshold
  C:7F4EH         PUBLIC        ArePerimeterHeatersReachedSetPoint
  C:9B74H         PUBLIC        HeaterTurnAllHeadHeaterOff
  C:4DCEH         PUBLIC        _HeaterSetTemperatures
  X:065EH         PUBLIC        ErrorTemperatures
  C:93F6H         PUBLIC        _HeaterSetTemperature
  X:0678H         PUBLIC        NumOfTemperaturesReadings
  X:0679H         PUBLIC        BlockHeatersLowThreshold
  X:067BH         PUBLIC        TemepartureErrTaskHandle
  X:067CH         PUBLIC        HeatersOnOff
  X:067EH         PUBLIC        HeatingRateTimeCheckDelta
  X:0680H         PUBLIC        HeatersLowThreshold
  C:6B00H         PUBLIC        GetNormalizedBlockHeatersAverage
  X:0682H         PUBLIC        ControlTaskHandle
  X:0683H         PUBLIC        HeaterControlStatus
  C:997EH         PUBLIC        _HeaterControlSetOnOff
  X:0684H         PUBLIC        HeatersActivationTaskHandle
  X:0685H         PUBLIC        A2D_VALUE_FOR_ONE_DEG
  C:9A81H         PUBLIC        TurnHeatersOnOff
  C:98E6H         PUBLIC        _HeaterSetTasksHandles
  C:2F3DH         PUBLIC        _HeaterControlTask
  C:41E4H         PUBLIC        _HeaterIsTempraturesOK
  C:4A54H         PUBLIC        HeaterControlInit
  C:70D0H         PUBLIC        _TemepartureErrNotifcationTask
  X:0689H         PUBLIC        StandbyTemperatures
  C:9137H         PUBLIC        _HeaterGetStandbyTemperatures
  X:06A3H         PUBLIC        HeatersTemp
  C:75A4H         PUBLIC        _HeaterSetHeaterState
BL51 BANKED LINKER/LOCATER V6.22                                                      04/28/2015  17:26:03  PAGE 61


  X:073FH         PUBLIC        StatusTaskHandle
  C:7C8FH         PUBLIC        _HeaterSetStandbyTemperatures
  C:38C3H         PUBLIC        HeaterCalculateCurrentTempeatures
  C:81D6H         PUBLIC        _HeaterGetCurrentTemperatures
  X:0740H         PUBLIC        NumOfReadingsBeforeErrors
  C:47D1H         PUBLIC        _ConvertBlockReadingsToHeadReadings
  X:0741H         PUBLIC        BlockHeatersHighThreshold
  X:0743H         PUBLIC        DEFAULT_HEATING_RATE
  X:0747H         PUBLIC        HeaterControlStatusChanged
  C:5B64H         PUBLIC        _HeaterStatusTask
  X:0748H         PUBLIC        HeatersActivationTaskData
  -------         PROC          HEATERCONTROLINIT
  -------         DO            
  X:0E29H         SYMBOL        i
  -------         ENDDO         
  C:4A54H         LINE#         138
  C:4A54H         LINE#         139
  C:4A54H         LINE#         142
  C:4A59H         LINE#         143
  C:4A5EH         LINE#         144
  C:4A66H         LINE#         145
  C:4A6FH         LINE#         146
  C:4A78H         LINE#         147
  C:4A81H         LINE#         148
  C:4A8AH         LINE#         149
  C:4A8FH         LINE#         150
  C:4A94H         LINE#         151
  C:4A9CH         LINE#         152
  C:4AD1H         LINE#         155
  C:4AE1H         LINE#         156
  C:4AE1H         LINE#         157
  C:4AF9H         LINE#         158
  C:4B11H         LINE#         159
  C:4B29H         LINE#         160
  C:4B41H         LINE#         161
  C:4B49H         LINE#         163
  C:4B58H         LINE#         165
  C:4B66H         LINE#         166
  C:4B74H         LINE#         169
  C:4B77H         LINE#         170
  C:4B7CH         LINE#         171
  -------         ENDPROC       HEATERCONTROLINIT
  -------         PROC          _HEATERCONTROLSETONOFF
  X:0E2AH         SYMBOL        OnOff
  C:997EH         LINE#         185
  C:9983H         LINE#         186
  C:9983H         LINE#         187
  C:998DH         LINE#         188
  C:9993H         LINE#         189
  C:999BH         LINE#         190
  -------         ENDPROC       _HEATERCONTROLSETONOFF
  -------         PROC          _HEATERSETTEMPERATURE
  X:0DCDH         SYMBOL        HeaterNum
  X:0DCEH         SYMBOL        Temperature
  C:93F6H         LINE#         203
  C:9403H         LINE#         204
  C:9403H         LINE#         209
BL51 BANKED LINKER/LOCATER V6.22                                                      04/28/2015  17:26:03  PAGE 62


  C:9423H         LINE#         215
  -------         ENDPROC       _HEATERSETTEMPERATURE
  -------         PROC          _HEATERSETTEMPERATURES
  X:0AEAH         SYMBOL        FirstHeaterNum
  X:0AEBH         SYMBOL        LastHeaterNum
  X:0AECH         SYMBOL        Temperatures
  X:0AEFH         SYMBOL        LowThreshold
  X:0AF1H         SYMBOL        HighThreshold
  X:0AF3H         SYMBOL        BlockLowThreshold
  X:0AF5H         SYMBOL        BlockHighThreshold
  X:0AF7H         SYMBOL        HeatingRate
  X:0AF9H         SYMBOL        KeepHeatingEvenOpenOrShortCircuit
  -------         DO            
  X:0AFAH         SYMBOL        HeaterNum
  X:0AFBH         SYMBOL        i
  -------         ENDDO         
  C:4DCEH         LINE#         226
  C:4DE3H         LINE#         227
  C:4DE3H         LINE#         233
  C:4E01H         LINE#         234
  C:4E01H         LINE#         235
  C:4E39H         LINE#         241
  C:4E47H         LINE#         243
  C:4E57H         LINE#         244
  C:4E67H         LINE#         245
  C:4E77H         LINE#         246
  C:4E87H         LINE#         247
  C:4EAEH         LINE#         248
  C:4EE9H         LINE#         249
  C:4EF3H         LINE#         250
  -------         ENDPROC       _HEATERSETTEMPERATURES
  -------         PROC          _HEATERGETCURRENTTEMPERATURES
  X:0D17H         SYMBOL        Temperatures
  -------         DO            
  X:0D1AH         SYMBOL        HeaterNum
  -------         ENDDO         
  C:81D6H         LINE#         259
  C:81E1H         LINE#         260
  C:81E1H         LINE#         263
  C:81E4H         LINE#         265
  C:81F4H         LINE#         266
  C:8234H         LINE#         267
  -------         ENDPROC       _HEATERGETCURRENTTEMPERATURES
  -------         PROC          _HEATERSETSTANDBYTEMPERATURES
  X:0C08H         SYMBOL        FirstHeaterNum
  X:0C09H         SYMBOL        LastHeaterNum
  X:0C0AH         SYMBOL        Temperatures
  -------         DO            
  X:0C0DH         SYMBOL        HeaterNum
  X:0C0EH         SYMBOL        i
  -------         ENDDO         
  C:7C8FH         LINE#         277
  C:7CA4H         LINE#         278
  C:7CA4H         LINE#         281
  C:7CC2H         LINE#         282
  C:7D06H         LINE#         283
  -------         ENDPROC       _HEATERSETSTANDBYTEMPERATURES
BL51 BANKED LINKER/LOCATER V6.22                                                      04/28/2015  17:26:03  PAGE 63


  -------         PROC          _HEATERGETSTANDBYTEMPERATURES
  X:0DD0H         SYMBOL        Temperatures
  C:9137H         LINE#         292
  C:9142H         LINE#         293
  C:9142H         LINE#         294
  C:916CH         LINE#         295
  -------         ENDPROC       _HEATERGETSTANDBYTEMPERATURES
  -------         PROC          _HEATERSETTASKSHANDLES
  X:0E08H         SYMBOL        StatusTask
  X:0E09H         SYMBOL        HeadsControlTask
  C:98E6H         LINE#         304
  C:98F0H         LINE#         305
  C:98F0H         LINE#         306
  C:98FAH         LINE#         307
  C:9904H         LINE#         308
  -------         ENDPROC       _HEATERSETTASKSHANDLES
  -------         PROC          _HEATERSTATUSTASK
  X:0E0AH         SYMBOL        Arg
  -------         DO            
  X:0E0BH         SYMBOL        i
  -------         ENDDO         
  C:5B64H         LINE#         319
  C:5B69H         LINE#         320
  C:5B69H         LINE#         323
  C:5B79H         LINE#         324
  C:5B79H         LINE#         325
  C:5B79H         LINE#         326
  C:5B79H         LINE#         327
  C:5B86H         LINE#         328
  C:5B86H         LINE#         329
  C:5B8BH         LINE#         331
  C:5B95H         LINE#         332
  C:5B95H         LINE#         334
  C:5B98H         LINE#         337
  C:5BA8H         LINE#         338
  C:5BA8H         LINE#         339
  C:5BD8H         LINE#         340
  C:5BF7H         LINE#         341
  C:5BFFH         LINE#         343
  C:5C04H         LINE#         344
  C:5C0EH         LINE#         345
  C:5C0FH         LINE#         347
  C:5C0FH         LINE#         348
  C:5C12H         LINE#         349
  C:5C17H         LINE#         350
  C:5C17H         LINE#         351
  C:5C18H         LINE#         353
  C:5C18H         LINE#         354
  C:5C21H         LINE#         355
  C:5C21H         LINE#         357
  C:5C24H         LINE#         359
  C:5C29H         LINE#         360
  C:5C33H         LINE#         361
  C:5C34H         LINE#         363
  C:5C34H         LINE#         364
  C:5C39H         LINE#         365
  C:5C39H         LINE#         366
BL51 BANKED LINKER/LOCATER V6.22                                                      04/28/2015  17:26:03  PAGE 64


  C:5C39H         LINE#         367
  C:5C39H         LINE#         368
  C:5C3AH         LINE#         370
  C:5C3AH         LINE#         371
  C:5C3FH         LINE#         372
  C:5C3FH         LINE#         373
  C:5C3FH         LINE#         374
  -------         ENDPROC       _HEATERSTATUSTASK
  -------         PROC          _HEATERCONTROLTASK
  X:0C5AH         SYMBOL        Arg
  -------         DO            
  X:0C5BH         SYMBOL        i
  X:0C5CH         SYMBOL        BlockHeatersAverage
  X:0C5EH         SYMBOL        CurrentSet
  -------         ENDDO         
  C:2F3DH         LINE#         384
  C:2F42H         LINE#         385
  C:2F42H         LINE#         389
  C:2F55H         LINE#         390
  C:2F55H         LINE#         391
  C:2F55H         LINE#         392
  C:2F55H         LINE#         394
  C:2F60H         LINE#         396
  C:2F73H         LINE#         397
  C:2F73H         LINE#         399
  C:2F81H         LINE#         400
  C:2F81H         LINE#         401
  C:2FDEH         LINE#         403
  C:2FDEH         LINE#         405
  C:3018H         LINE#         407
  C:3050H         LINE#         408
  C:30B1H         LINE#         409
  C:30B1H         LINE#         410
  C:30B1H         LINE#         413
  C:30F4H         LINE#         414
  C:30F4H         LINE#         415
  C:3102H         LINE#         416
  C:3102H         LINE#         417
  C:3170H         LINE#         418
  C:317CH         LINE#         420
  C:3186H         LINE#         421
  C:3188H         LINE#         423
  C:3188H         LINE#         424
  C:31BFH         LINE#         425
  C:31CBH         LINE#         427
  C:31D5H         LINE#         428
  C:31D5H         LINE#         429
  C:31D7H         LINE#         431
  C:31D7H         LINE#         432
  C:31E1H         LINE#         433
  C:31E1H         LINE#         437
  C:3219H         LINE#         438
  C:3223H         LINE#         441
  C:3265H         LINE#         443
  C:3265H         LINE#         444
  C:3278H         LINE#         445
  C:3278H         LINE#         446
BL51 BANKED LINKER/LOCATER V6.22                                                      04/28/2015  17:26:03  PAGE 65


  C:3282H         LINE#         447
  C:3284H         LINE#         449
  C:3284H         LINE#         450
  C:328CH         LINE#         451
  C:328EH         LINE#         452
  C:328EH         LINE#         453
  C:328EH         LINE#         454
  C:3297H         LINE#         456
  C:329AH         LINE#         458
  C:329FH         LINE#         459
  C:32A8H         LINE#         460
  C:32A8H         LINE#         461
  C:32A9H         LINE#         463
  C:32A9H         LINE#         464
  C:32A9H         LINE#         465
  C:32AEH         LINE#         466
  C:32B8H         LINE#         467
  C:32B9H         LINE#         468
  C:32B9H         LINE#         470
  C:32B9H         LINE#         471
  C:32BEH         LINE#         472
  C:32BEH         LINE#         473
  C:32BEH         LINE#         474
  -------         ENDPROC       _HEATERCONTROLTASK
  -------         PROC          HEATERCALCULATECURRENTTEMPEATURES
  -------         DO            
  X:0A42H         SYMBOL        Tempratures
  X:0A5CH         SYMBOL        i
  X:0A5DH         SYMBOL        TemperatureError
  X:0A5EH         SYMBOL        IgnoreAverage
  X:0A5FH         SYMBOL        IgnoreErrors
  -------         ENDDO         
  C:38C3H         LINE#         490
  C:38C3H         LINE#         491
  C:38C3H         LINE#         494
  C:38D2H         LINE#         497
  C:38DBH         LINE#         501
  C:38E8H         LINE#         502
  C:38F5H         LINE#         503
  C:3902H         LINE#         504
  C:390FH         LINE#         505
  C:391CH         LINE#         506
  C:3929H         LINE#         507
  C:3936H         LINE#         508
  C:3943H         LINE#         510
  C:3950H         LINE#         511
  C:395DH         LINE#         512
  C:396AH         LINE#         513
  C:3977H         LINE#         515
  C:3984H         LINE#         518
  C:398FH         LINE#         519
  C:398FH         LINE#         520
  C:3995H         LINE#         521
  C:399BH         LINE#         522
  C:399BH         LINE#         524
  C:39A6H         LINE#         525
  C:39A6H         LINE#         526
BL51 BANKED LINKER/LOCATER V6.22                                                      04/28/2015  17:26:03  PAGE 66


  C:39ACH         LINE#         527
  C:39B2H         LINE#         528
  C:39B2H         LINE#         530
  C:39C5H         LINE#         531
  C:39C5H         LINE#         534
  C:3A11H         LINE#         535
  C:3A11H         LINE#         536
  C:3A19H         LINE#         537
  C:3A5DH         LINE#         539
  C:3A8CH         LINE#         540
  C:3AC8H         LINE#         541
  C:3AC8H         LINE#         543
  C:3B13H         LINE#         544
  C:3B19H         LINE#         545
  C:3B22H         LINE#         547
  C:3B2AH         LINE#         548
  C:3B2AH         LINE#         549
  C:3B35H         LINE#         552
  C:3B5AH         LINE#         553
  C:3B64H         LINE#         554
  C:3B64H         LINE#         555
  -------         ENDPROC       HEATERCALCULATECURRENTTEMPEATURES
  -------         PROC          _HEATERSETHEATERSTATE
  X:0D1BH         SYMBOL        HeaterNum
  X:0D1CH         SYMBOL        On
  -------         DO            
  X:0D1DH         SYMBOL        ShiftByte
  -------         ENDDO         
  C:75A4H         LINE#         566
  C:75AEH         LINE#         567
  C:75AEH         LINE#         568
  C:75B7H         LINE#         570
  C:75BFH         LINE#         571
  C:75F1H         LINE#         573
  C:7628H         LINE#         574
  -------         ENDPROC       _HEATERSETHEATERSTATE
  -------         PROC          TURNHEATERSONOFF
  C:9A81H         LINE#         584
  C:9A81H         LINE#         585
  C:9A81H         LINE#         593
  C:9A91H         LINE#         594
  C:9A9BH         LINE#         597
  -------         ENDPROC       TURNHEATERSONOFF
  -------         PROC          HEATERTURNALLHEADHEATEROFF
  C:9B74H         LINE#         607
  C:9B74H         LINE#         608
  C:9B74H         LINE#         616
  C:9B7CH         LINE#         617
  C:9B86H         LINE#         620
  -------         ENDPROC       HEATERTURNALLHEADHEATEROFF
  -------         PROC          _HEATERISTEMPRATURESOK
  X:0B1EH         SYMBOL        HeadNum
  X:0B21H         SYMBOL        Temperature
  X:0B24H         SYMBOL        ErrDescription
  -------         DO            
  X:0B27H         SYMBOL        i
  X:0B28H         SYMBOL        HighThreshold
BL51 BANKED LINKER/LOCATER V6.22                                                      04/28/2015  17:26:03  PAGE 67


  X:0B2AH         SYMBOL        LowThreshold
  -------         ENDDO         
  C:41E4H         LINE#         630
  C:41EFH         LINE#         631
  C:41EFH         LINE#         635
  C:41F2H         LINE#         637
  C:4205H         LINE#         638
  C:4205H         LINE#         639
  C:4210H         LINE#         640
  C:4210H         LINE#         641
  C:4220H         LINE#         642
  C:4230H         LINE#         643
  C:4232H         LINE#         645
  C:4232H         LINE#         646
  C:4242H         LINE#         647
  C:4252H         LINE#         648
  C:4252H         LINE#         651
  C:42E0H         LINE#         652
  C:42E0H         LINE#         653
  C:42F4H         LINE#         654
  C:431DH         LINE#         655
  C:4378H         LINE#         656
  C:437BH         LINE#         657
  C:437BH         LINE#         658
  C:4384H         LINE#         661
  C:4386H         LINE#         662
  -------         ENDPROC       _HEATERISTEMPRATURESOK
  -------         PROC          _TEMEPARTUREERRNOTIFCATIONTASK
  X:0A60H         SYMBOL        Arg
  -------         DO            
  X:0A61H         SYMBOL        Msg
  -------         ENDDO         
  C:70D0H         LINE#         665
  C:70D5H         LINE#         666
  C:70D5H         LINE#         669
  C:70DBH         LINE#         670
  C:7100H         LINE#         671
  C:712FH         LINE#         673
  C:714FH         LINE#         674
  C:7155H         LINE#         676
  C:715DH         LINE#         677
  -------         ENDPROC       _TEMEPARTUREERRNOTIFCATIONTASK
  -------         PROC          _HEATERSACTIVATIONTASK
  X:0D1FH         SYMBOL        Arg
  -------         DO            
  X:0D20H         SYMBOL        Msg
  -------         ENDDO         
  C:8235H         LINE#         679
  C:823AH         LINE#         680
  C:823AH         LINE#         689
  C:824DH         LINE#         690
  C:824DH         LINE#         691
  C:824DH         LINE#         692
  C:824DH         LINE#         693
  C:8253H         LINE#         694
  C:8263H         LINE#         696
  C:826FH         LINE#         697
BL51 BANKED LINKER/LOCATER V6.22                                                      04/28/2015  17:26:03  PAGE 68


  C:826FH         LINE#         698
  C:8274H         LINE#         699
  C:8275H         LINE#         701
  C:8275H         LINE#         702
  C:827AH         LINE#         703
  C:827AH         LINE#         704
  C:827AH         LINE#         705
  C:827BH         LINE#         707
  C:827BH         LINE#         708
  C:827BH         LINE#         709
  C:8283H         LINE#         710
  C:8283H         LINE#         711
  C:8288H         LINE#         712
  C:828DH         LINE#         713
  C:828EH         LINE#         715
  C:828EH         LINE#         716
  C:8293H         LINE#         717
  C:8293H         LINE#         718
  C:8293H         LINE#         719
  C:8293H         LINE#         721
  C:8293H         LINE#         722
  C:8293H         LINE#         723
  C:8293H         LINE#         724
  -------         ENDPROC       _HEATERSACTIVATIONTASK
  -------         PROC          GETNORMALIZEDBLOCKHEATERSAVERAGE
  -------         DO            
  X:0D23H         SYMBOL        i
  X:0D24H         SYMBOL        count
  X:0D25H         SYMBOL        BlockHeatersAverage
  -------         ENDDO         
  C:6B00H         LINE#         726
  C:6B00H         LINE#         727
  C:6B00H         LINE#         729
  C:6B06H         LINE#         730
  C:6B16H         LINE#         732
  C:6B27H         LINE#         733
  C:6B8FH         LINE#         735
  C:6B9AH         LINE#         736
  -------         ENDPROC       GETNORMALIZEDBLOCKHEATERSAVERAGE
  -------         PROC          _CONVERTBLOCKREADINGSTOHEADREADINGS
  X:0BDAH         SYMBOL        BlockReadings
  -------         DO            
  X:0BDCH         SYMBOL        HeadReadings
  X:0BDEH         SYMBOL        BlockTemp
  -------         ENDDO         
  C:47D1H         LINE#         739
  C:47D9H         LINE#         740
  C:47D9H         LINE#         744
  C:47EBH         LINE#         746
  C:4854H         LINE#         747
  C:491DH         LINE#         749
  C:4925H         LINE#         750
  -------         ENDPROC       _CONVERTBLOCKREADINGSTOHEADREADINGS
  -------         PROC          AREPERIMETERHEATERSREACHEDSETPOINT
  -------         DO            
  X:0E0CH         SYMBOL        i
  X:0E0DH         SYMBOL        ret
BL51 BANKED LINKER/LOCATER V6.22                                                      04/28/2015  17:26:03  PAGE 69


  -------         ENDDO         
  C:7F4EH         LINE#         752
  C:7F4EH         LINE#         753
  C:7F4EH         LINE#         755
  C:7F54H         LINE#         757
  C:7F65H         LINE#         758
  C:7F65H         LINE#         759
  C:7FAAH         LINE#         760
  C:7FAAH         LINE#         761
  C:7FAFH         LINE#         762
  C:7FB1H         LINE#         763
  C:7FB1H         LINE#         764
  C:7FB9H         LINE#         766
  C:7FBEH         LINE#         767
  -------         ENDPROC       AREPERIMETERHEATERSREACHEDSETPOINT
  -------         ENDMOD        HEATERCONTROL

  -------         MODULE        PRINTDRIVER
  C:0000H         SYMBOL        _ICE_DUMMY_
  C:9840H         PUBLIC        PrintDrv_EnablePrintingCircuitry
  D:00B0H         PUBLIC        P3
  C:94AEH         PUBLIC        _PrintDrv_SetCommDirection
  C:92D2H         PUBLIC        _PrintDrv_SetEndPeg
  X:0B6DH         PUBLIC        FireAllCounter
  C:004EH         PUBLIC        _PrintDrv_SetResulotion
  C:98A5H         PUBLIC        PrintDrv_DisblePrintingCircuitry
  C:9BE2H         PUBLIC        PrintDrv_GetHeadPosition
  C:0026H         PUBLIC        PrintDrv_GetBumperImpact
  C:97FCH         PUBLIC        PrintDrv_ResetDriver
  C:98C6H         PUBLIC        _PrintDrv_SetHeadVoltage
  X:0B6EH         PUBLIC        FireAllTaskParams
  X:0B78H         PUBLIC        FireAllStatus
  C:90C6H         PUBLIC        _PrintDrv_EnableDisableBumperPeg
  C:9303H         PUBLIC        _PrintDrv_SetNumOfFires
  C:76AEH         PUBLIC        PrintDrv_Init
  C:9019H         PUBLIC        _PrintDrv_WriteToRegister
  C:9053H         PUBLIC        _PrintDrv_IsGetOperationDone
  C:9C5DH         PUBLIC        PrintDrv_GetFireAllCounter
  C:96C0H         PUBLIC        PrintDrv_IsSetOperationDone
  C:9334H         PUBLIC        _PrintDrv_SetDiagnostics
  C:269CH         PUBLIC        _PrintDrv_FireAllTask
  C:802FH         PUBLIC        _PrintDrv_SetFireAllParams
  C:981EH         PUBLIC        PrintDrv_ResetStateMachine
  C:9424H         PUBLIC        _PrintDrv_IsSetVoltageDone
  C:9396H         PUBLIC        _PrintDrv_SetBumperStartPeg
  C:9C57H         PUBLIC        PrintDrv_GetFireAllStatus
  C:9365H         PUBLIC        _PrintDrv_SetBumperEndPeg
  C:92A1H         PUBLIC        _PrintDrv_SetStartPeg
  -------         PROC          PRINTDRV_INIT
  -------         DO            
  X:0DD3H         SYMBOL        Msg
  -------         ENDDO         
  C:76AEH         LINE#         56
  C:76AEH         LINE#         57
  C:76AEH         LINE#         60
  C:76B6H         LINE#         61
  C:76BBH         LINE#         62
BL51 BANKED LINKER/LOCATER V6.22                                                      04/28/2015  17:26:03  PAGE 70


  C:76C0H         LINE#         64
  C:76C6H         LINE#         65
  C:76CCH         LINE#         67
  C:76D2H         LINE#         68
  C:76DAH         LINE#         69
  C:76E6H         LINE#         70
  C:76EDH         LINE#         72
  C:76F3H         LINE#         73
  C:76FBH         LINE#         74
  C:7707H         LINE#         75
  C:770EH         LINE#         77
  C:7714H         LINE#         78
  C:771CH         LINE#         79
  C:7728H         LINE#         80
  C:772FH         LINE#         81
  -------         ENDPROC       PRINTDRV_INIT
  -------         PROC          PRINTDRV_RESETDRIVER
  -------         DO            
  X:0DD6H         SYMBOL        ResetMsg
  -------         ENDDO         
  C:97FCH         LINE#         90
  C:97FCH         LINE#         91
  C:97FCH         LINE#         95
  C:9802H         LINE#         96
  C:980BH         LINE#         99
  C:9818H         LINE#         100
  C:981BH         LINE#         102
  C:981DH         LINE#         103
  -------         ENDPROC       PRINTDRV_RESETDRIVER
  -------         PROC          PRINTDRV_RESETSTATEMACHINE
  -------         DO            
  X:0DD9H         SYMBOL        ResetStateMsg
  -------         ENDDO         
  C:981EH         LINE#         112
  C:981EH         LINE#         113
  C:981EH         LINE#         117
  C:9824H         LINE#         118
  C:982DH         LINE#         121
  C:983AH         LINE#         122
  C:983DH         LINE#         124
  C:983FH         LINE#         125
  -------         ENDPROC       PRINTDRV_RESETSTATEMACHINE
  -------         PROC          _PRINTDRV_SETSTARTPEG
  X:0C94H         SYMBOL        StartPeg
  -------         DO            
  X:0C96H         SYMBOL        StartPegMsg
  -------         ENDDO         
  C:92A1H         LINE#         134
  C:92A9H         LINE#         135
  C:92A9H         LINE#         139
  C:92AFH         LINE#         140
  C:92BFH         LINE#         143
  C:92CCH         LINE#         144
  C:92CFH         LINE#         146
  C:92D1H         LINE#         147
  -------         ENDPROC       _PRINTDRV_SETSTARTPEG
  -------         PROC          _PRINTDRV_WRITETOREGISTER
BL51 BANKED LINKER/LOCATER V6.22                                                      04/28/2015  17:26:03  PAGE 71


  X:0C60H         SYMBOL        Address
  X:0C61H         SYMBOL        Data
  -------         DO            
  X:0C63H         SYMBOL        Msg
  -------         ENDDO         
  C:9019H         LINE#         150
  C:9026H         LINE#         151
  C:9026H         LINE#         155
  C:9030H         LINE#         156
  C:9040H         LINE#         159
  C:904DH         LINE#         160
  C:9050H         LINE#         162
  C:9052H         LINE#         163
  -------         ENDPROC       _PRINTDRV_WRITETOREGISTER
  -------         PROC          _PRINTDRV_SETENDPEG
  X:0C99H         SYMBOL        EndPeg
  -------         DO            
  X:0C9BH         SYMBOL        EndPegMsg
  -------         ENDDO         
  C:92D2H         LINE#         172
  C:92DAH         LINE#         173
  C:92DAH         LINE#         177
  C:92E0H         LINE#         178
  C:92F0H         LINE#         181
  C:92FDH         LINE#         182
  C:9300H         LINE#         184
  C:9302H         LINE#         185
  -------         ENDPROC       _PRINTDRV_SETENDPEG
  -------         PROC          _PRINTDRV_SETNUMOFFIRES
  X:0C9EH         SYMBOL        NumOfFires
  -------         DO            
  X:0CA0H         SYMBOL        NumOfFiresMsg
  -------         ENDDO         
  C:9303H         LINE#         195
  C:930BH         LINE#         196
  C:930BH         LINE#         201
  C:9311H         LINE#         202
  C:9321H         LINE#         205
  C:932EH         LINE#         206
  C:9331H         LINE#         208
  C:9333H         LINE#         209
  -------         ENDPROC       _PRINTDRV_SETNUMOFFIRES
  -------         PROC          PRINTDRV_GETHEADPOSITION
  C:9BE2H         LINE#         219
  C:9BE2H         LINE#         220
  C:9BE2H         LINE#         221
  C:9BEAH         LINE#         222
  C:9BEDH         LINE#         224
  C:9BEFH         LINE#         225
  -------         ENDPROC       PRINTDRV_GETHEADPOSITION
  -------         PROC          PRINTDRV_ENABLEPRINTINGCIRCUITRY
  -------         DO            
  X:0DDCH         SYMBOL        EnablePrintingMsg
  -------         ENDDO         
  C:9840H         LINE#         235
  C:9840H         LINE#         236
  C:9840H         LINE#         240
BL51 BANKED LINKER/LOCATER V6.22                                                      04/28/2015  17:26:03  PAGE 72


  C:9846H         LINE#         241
  C:984FH         LINE#         244
  C:985CH         LINE#         245
  C:985FH         LINE#         247
  C:9861H         LINE#         248
  -------         ENDPROC       PRINTDRV_ENABLEPRINTINGCIRCUITRY
  -------         PROC          PRINTDRV_DISBLEPRINTINGCIRCUITRY
  -------         DO            
  X:0DDFH         SYMBOL        DisablePrintingMsg
  -------         ENDDO         
  C:98A5H         LINE#         258
  C:98A5H         LINE#         259
  C:98A5H         LINE#         263
  C:98ABH         LINE#         264
  C:98B3H         LINE#         267
  C:98C0H         LINE#         268
  C:98C3H         LINE#         270
  C:98C5H         LINE#         271
  -------         ENDPROC       PRINTDRV_DISBLEPRINTINGCIRCUITRY
  -------         PROC          _PRINTDRV_SETRESULOTION
  X:0D27H         SYMBOL        Resulotion
  -------         DO            
  X:0D28H         SYMBOL        SetResulotionMsg
  -------         ENDDO         
  C:004EH         LINE#         281
  C:0053H         LINE#         282
  C:0053H         LINE#         286
  C:0059H         LINE#         287
  C:0068H         LINE#         290
  C:0075H         LINE#         291
  C:0078H         LINE#         293
  C:007AH         LINE#         294
  -------         ENDPROC       _PRINTDRV_SETRESULOTION
  -------         PROC          _PRINTDRV_SETDIAGNOSTICS
  X:0CA3H         SYMBOL        RegValue
  -------         DO            
  X:0CA5H         SYMBOL        Msg
  -------         ENDDO         
  C:9334H         LINE#         303
  C:933CH         LINE#         304
  C:933CH         LINE#         308
  C:9342H         LINE#         309
  C:9352H         LINE#         312
  C:935FH         LINE#         313
  C:9362H         LINE#         315
  C:9364H         LINE#         316
  -------         ENDPROC       _PRINTDRV_SETDIAGNOSTICS
  -------         PROC          _PRINTDRV_SETCOMMDIRECTION
  X:0D2BH         SYMBOL        Direction
  -------         DO            
  X:0D2CH         SYMBOL        Msg
  -------         ENDDO         
  C:94AEH         LINE#         326
  C:94B3H         LINE#         327
  C:94B3H         LINE#         331
  C:94B9H         LINE#         332
  C:94C8H         LINE#         335
BL51 BANKED LINKER/LOCATER V6.22                                                      04/28/2015  17:26:03  PAGE 73


  C:94D5H         LINE#         336
  C:94D8H         LINE#         338
  C:94DAH         LINE#         339
  -------         ENDPROC       _PRINTDRV_SETCOMMDIRECTION
  -------         PROC          _PRINTDRV_SETBUMPERENDPEG
  X:0CA8H         SYMBOL        EndPeg
  -------         DO            
  X:0CAAH         SYMBOL        EndPegMsg
  -------         ENDDO         
  C:9365H         LINE#         348
  C:936DH         LINE#         349
  C:936DH         LINE#         353
  C:9373H         LINE#         354
  C:9383H         LINE#         357
  C:9390H         LINE#         358
  C:9393H         LINE#         360
  C:9395H         LINE#         361
  -------         ENDPROC       _PRINTDRV_SETBUMPERENDPEG
  -------         PROC          _PRINTDRV_SETBUMPERSTARTPEG
  X:0CADH         SYMBOL        StartPeg
  -------         DO            
  X:0CAFH         SYMBOL        StartPegMsg
  -------         ENDDO         
  C:9396H         LINE#         371
  C:939EH         LINE#         372
  C:939EH         LINE#         376
  C:93A4H         LINE#         377
  C:93B4H         LINE#         380
  C:93C1H         LINE#         381
  C:93C4H         LINE#         383
  C:93C6H         LINE#         384
  -------         ENDPROC       _PRINTDRV_SETBUMPERSTARTPEG
  -------         PROC          PRINTDRV_GETBUMPERIMPACT
  C:0026H         LINE#         394
  C:0026H         LINE#         395
  C:0026H         LINE#         396
  C:0028H         LINE#         397
  -------         ENDPROC       PRINTDRV_GETBUMPERIMPACT
  -------         PROC          PRINTDRV_ISSETOPERATIONDONE
  -------         DO            
  X:0E2BH         SYMBOL        Status
  -------         ENDDO         
  C:96C0H         LINE#         406
  C:96C0H         LINE#         407
  C:96C0H         LINE#         411
  C:96C8H         LINE#         412
  C:96D2H         LINE#         413
  C:96D2H         LINE#         414
  C:96DBH         LINE#         415
  C:96DEH         LINE#         417
  C:96E1H         LINE#         418
  C:96E1H         LINE#         420
  C:96E3H         LINE#         421
  -------         ENDPROC       PRINTDRV_ISSETOPERATIONDONE
  -------         PROC          _PRINTDRV_ISGETOPERATIONDONE
  X:0CB2H         SYMBOL        Data
  -------         DO            
BL51 BANKED LINKER/LOCATER V6.22                                                      04/28/2015  17:26:03  PAGE 74


  X:0CB5H         SYMBOL        XilinxData
  -------         ENDDO         
  C:9053H         LINE#         431
  C:905EH         LINE#         432
  C:905EH         LINE#         434
  C:906CH         LINE#         435
  C:906CH         LINE#         437
  C:9087H         LINE#         438
  C:908AH         LINE#         439
  C:908AH         LINE#         441
  C:908CH         LINE#         442
  -------         ENDPROC       _PRINTDRV_ISGETOPERATIONDONE
  -------         PROC          _PRINTDRV_SETFIREALLPARAMS
  X:0B9BH         SYMBOL        Frequency
  X:0B9DH         SYMBOL        Time
  X:0B9FH         SYMBOL        Head
  X:0BA1H         SYMBOL        NumOfFires
  X:0BA3H         SYMBOL        DestId
  X:0BA4H         SYMBOL        TransactionId
  C:802FH         LINE#         452
  C:8047H         LINE#         453
  C:8047H         LINE#         454
  C:8057H         LINE#         455
  C:8067H         LINE#         456
  C:8077H         LINE#         457
  C:8087H         LINE#         458
  C:8091H         LINE#         459
  C:809BH         LINE#         460
  -------         ENDPROC       _PRINTDRV_SETFIREALLPARAMS
  -------         PROC          _PRINTDRV_FIREALLTASK
  X:0B90H         SYMBOL        Arg
  -------         DO            
  X:0B91H         SYMBOL        Status
  X:0B92H         SYMBOL        XilinxStatus
  X:0B93H         SYMBOL        Msg
  X:0B96H         SYMBOL        XilinxData
  -------         DO            
  X:0B98H         SYMBOL        Msg
  X:0B98H         SYMBOL        Notification
  -------         ENDDO         
  -------         DO            
  X:0B98H         SYMBOL        Notification
  -------         ENDDO         
  -------         ENDDO         
  C:269CH         LINE#         472
  C:26A1H         LINE#         473
  C:26A1H         LINE#         514
  C:2708H         LINE#         515
  C:2708H         LINE#         516
  C:2708H         LINE#         517
  C:2708H         LINE#         520
  C:270EH         LINE#         521
  C:2714H         LINE#         522
  C:2719H         LINE#         524
  C:2743H         LINE#         525
  C:2743H         LINE#         526
  C:2749H         LINE#         527
BL51 BANKED LINKER/LOCATER V6.22                                                      04/28/2015  17:26:03  PAGE 75


  C:274EH         LINE#         528
  C:274FH         LINE#         530
  C:2754H         LINE#         531
  C:2755H         LINE#         532
  C:2755H         LINE#         534
  C:2755H         LINE#         535
  C:275BH         LINE#         536
  C:2761H         LINE#         538
  C:2766H         LINE#         539
  C:2767H         LINE#         541
  C:2767H         LINE#         542
  C:276FH         LINE#         543
  C:2779H         LINE#         544
  C:2779H         LINE#         545
  C:2781H         LINE#         546
  C:2787H         LINE#         548
  C:278CH         LINE#         549
  C:278DH         LINE#         551
  C:2792H         LINE#         552
  C:2793H         LINE#         554
  C:2793H         LINE#         555
  C:2799H         LINE#         556
  C:279FH         LINE#         558
  C:27A4H         LINE#         559
  C:27A5H         LINE#         561
  C:27A5H         LINE#         562
  C:27ADH         LINE#         563
  C:27B7H         LINE#         564
  C:27B7H         LINE#         565
  C:27BFH         LINE#         566
  C:27C5H         LINE#         568
  C:27CAH         LINE#         569
  C:27CBH         LINE#         571
  C:27D0H         LINE#         572
  C:27D1H         LINE#         574
  C:27D1H         LINE#         575
  C:27D7H         LINE#         576
  C:27E0H         LINE#         577
  C:27ECH         LINE#         578
  C:27F2H         LINE#         580
  C:27F7H         LINE#         581
  C:27F8H         LINE#         583
  C:27F8H         LINE#         584
  C:2800H         LINE#         585
  C:280AH         LINE#         586
  C:280AH         LINE#         587
  C:2812H         LINE#         588
  C:2818H         LINE#         590
  C:281DH         LINE#         591
  C:281EH         LINE#         593
  C:2823H         LINE#         594
  C:2824H         LINE#         596
  C:2824H         LINE#         597
  C:282AH         LINE#         598
  C:2832H         LINE#         599
  C:283EH         LINE#         600
  C:2844H         LINE#         602
BL51 BANKED LINKER/LOCATER V6.22                                                      04/28/2015  17:26:03  PAGE 76


  C:2849H         LINE#         603
  C:284AH         LINE#         605
  C:284AH         LINE#         606
  C:2851H         LINE#         607
  C:2857H         LINE#         609
  C:285CH         LINE#         610
  C:285DH         LINE#         612
  C:285DH         LINE#         613
  C:2863H         LINE#         614
  C:2894H         LINE#         615
  C:28A0H         LINE#         616
  C:28A6H         LINE#         618
  C:28ABH         LINE#         619
  C:28ACH         LINE#         621
  C:28ACH         LINE#         622
  C:28B3H         LINE#         623
  C:28B9H         LINE#         625
  C:28BEH         LINE#         626
  C:28BFH         LINE#         628
  C:28BFH         LINE#         629
  C:28C5H         LINE#         630
  C:28D5H         LINE#         631
  C:28E1H         LINE#         632
  C:28E7H         LINE#         634
  C:28ECH         LINE#         635
  C:28EDH         LINE#         637
  C:28EDH         LINE#         638
  C:28F4H         LINE#         639
  C:28FAH         LINE#         641
  C:28FFH         LINE#         642
  C:2900H         LINE#         644
  C:2900H         LINE#         645
  C:2906H         LINE#         646
  C:2916H         LINE#         647
  C:2922H         LINE#         648
  C:2928H         LINE#         650
  C:292DH         LINE#         651
  C:292EH         LINE#         653
  C:292EH         LINE#         654
  C:2935H         LINE#         655
  C:293BH         LINE#         657
  C:2940H         LINE#         658
  C:2941H         LINE#         660
  C:2941H         LINE#         661
  C:2947H         LINE#         662
  C:294FH         LINE#         663
  C:295BH         LINE#         664
  C:2961H         LINE#         666
  C:2966H         LINE#         667
  C:2967H         LINE#         669
  C:2967H         LINE#         670
  C:296EH         LINE#         671
  C:2974H         LINE#         673
  C:2979H         LINE#         674
  C:297AH         LINE#         676
  C:297AH         LINE#         677
  C:2980H         LINE#         678
BL51 BANKED LINKER/LOCATER V6.22                                                      04/28/2015  17:26:03  PAGE 77


  C:298AH         LINE#         679
  C:2996H         LINE#         680
  C:299CH         LINE#         682
  C:29A1H         LINE#         683
  C:29A2H         LINE#         685
  C:29A2H         LINE#         686
  C:29A9H         LINE#         687
  C:29AFH         LINE#         689
  C:29B4H         LINE#         690
  C:29B5H         LINE#         692
  C:29B5H         LINE#         693
  C:29BBH         LINE#         694
  C:29C1H         LINE#         696
  C:29C6H         LINE#         697
  C:29C7H         LINE#         699
  C:29C7H         LINE#         700
  C:29CFH         LINE#         701
  C:29D9H         LINE#         702
  C:29D9H         LINE#         703
  C:29E1H         LINE#         704
  C:29E1H         LINE#         705
  C:29E6H         LINE#         706
  C:29F3H         LINE#         707
  C:29F4H         LINE#         709
  C:29F9H         LINE#         710
  C:29FAH         LINE#         712
  C:29FFH         LINE#         713
  C:2A00H         LINE#         715
  C:2A00H         LINE#         716
  C:2A06H         LINE#         717
  C:2A0CH         LINE#         719
  C:2A11H         LINE#         720
  C:2A12H         LINE#         722
  C:2A12H         LINE#         723
  C:2A1AH         LINE#         724
  C:2A24H         LINE#         725
  C:2A24H         LINE#         726
  C:2A2CH         LINE#         727
  C:2A32H         LINE#         729
  C:2A37H         LINE#         730
  C:2A38H         LINE#         732
  C:2A3DH         LINE#         733
  C:2A3EH         LINE#         735
  C:2A3EH         LINE#         736
  C:2A44H         LINE#         737
  C:2A4CH         LINE#         738
  C:2A58H         LINE#         739
  C:2A5EH         LINE#         741
  C:2A63H         LINE#         742
  C:2A64H         LINE#         744
  C:2A64H         LINE#         745
  C:2A6CH         LINE#         746
  C:2A76H         LINE#         747
  C:2A76H         LINE#         749
  C:2A7FH         LINE#         750
  C:2A85H         LINE#         752
  C:2A8AH         LINE#         753
BL51 BANKED LINKER/LOCATER V6.22                                                      04/28/2015  17:26:03  PAGE 78


  C:2A8BH         LINE#         755
  C:2A90H         LINE#         756
  C:2A91H         LINE#         758
  C:2A91H         LINE#         759
  C:2A99H         LINE#         760
  C:2A9FH         LINE#         762
  C:2AA4H         LINE#         763
  C:2AA5H         LINE#         765
  C:2AA5H         LINE#         766
  C:2AB3H         LINE#         767
  C:2ABDH         LINE#         768
  C:2ABDH         LINE#         769
  C:2AC6H         LINE#         770
  C:2AC6H         LINE#         772
  C:2AD2H         LINE#         773
  C:2AD8H         LINE#         775
  C:2AD8H         LINE#         776
  C:2ADDH         LINE#         777
  C:2ADDH         LINE#         778
  C:2ADEH         LINE#         780
  C:2AE3H         LINE#         781
  C:2AE4H         LINE#         783
  C:2AE9H         LINE#         784
  C:2AEAH         LINE#         786
  C:2AEAH         LINE#         787
  C:2AF0H         LINE#         788
  C:2AF8H         LINE#         789
  C:2B04H         LINE#         790
  C:2B0AH         LINE#         792
  C:2B0FH         LINE#         793
  C:2B10H         LINE#         795
  C:2B10H         LINE#         796
  C:2B18H         LINE#         797
  C:2B22H         LINE#         798
  C:2B22H         LINE#         799
  C:2B2AH         LINE#         800
  C:2B30H         LINE#         802
  C:2B35H         LINE#         803
  C:2B36H         LINE#         805
  C:2B3BH         LINE#         806
  C:2B3CH         LINE#         808
  C:2B3CH         LINE#         809
  C:2B3CH         LINE#         811
  C:2B42H         LINE#         812
  C:2B4CH         LINE#         814
  C:2B70H         LINE#         815
  C:2B70H         LINE#         816
  C:2B75H         LINE#         817
  C:2B7AH         LINE#         818
  C:2B7FH         LINE#         819
  C:2B80H         LINE#         821
  C:2B85H         LINE#         822
  C:2B86H         LINE#         824
  C:2B86H         LINE#         826
  C:2B86H         LINE#         827
  C:2B8BH         LINE#         828
  C:2B8BH         LINE#         830
BL51 BANKED LINKER/LOCATER V6.22                                                      04/28/2015  17:26:03  PAGE 79


  C:2B8BH         LINE#         832
  -------         ENDPROC       _PRINTDRV_FIREALLTASK
  -------         PROC          PRINTDRV_GETFIREALLSTATUS
  C:9C57H         LINE#         842
  C:9C57H         LINE#         843
  C:9C57H         LINE#         844
  C:9C5CH         LINE#         845
  -------         ENDPROC       PRINTDRV_GETFIREALLSTATUS
  -------         PROC          PRINTDRV_GETFIREALLCOUNTER
  C:9C5DH         LINE#         855
  C:9C5DH         LINE#         856
  C:9C5DH         LINE#         857
  C:9C62H         LINE#         858
  -------         ENDPROC       PRINTDRV_GETFIREALLCOUNTER
  -------         PROC          _PRINTDRV_SETHEADVOLTAGE
  X:0E0EH         SYMBOL        HeadNum
  X:0E0FH         SYMBOL        PotentiometerValue
  C:98C6H         LINE#         867
  C:98D0H         LINE#         868
  C:98D0H         LINE#         869
  C:98E0H         LINE#         870
  C:98E3H         LINE#         872
  C:98E5H         LINE#         873
  -------         ENDPROC       _PRINTDRV_SETHEADVOLTAGE
  -------         PROC          _PRINTDRV_ISSETVOLTAGEDONE
  X:0E10H         SYMBOL        HeadNum
  -------         DO            
  X:0E11H         SYMBOL        Status
  -------         ENDDO         
  C:9424H         LINE#         883
  C:9429H         LINE#         884
  C:9429H         LINE#         888
  C:9436H         LINE#         889
  C:9440H         LINE#         890
  C:9440H         LINE#         891
  C:9449H         LINE#         892
  C:944CH         LINE#         894
  C:944FH         LINE#         895
  C:944FH         LINE#         897
  C:9451H         LINE#         898
  -------         ENDPROC       _PRINTDRV_ISSETVOLTAGEDONE
  -------         PROC          _PRINTDRV_ENABLEDISABLEBUMPERPEG
  X:0D2FH         SYMBOL        Enable
  -------         DO            
  X:0D30H         SYMBOL        BumperPegMsg
  -------         ENDDO         
  C:90C6H         LINE#         901
  C:90CBH         LINE#         902
  C:90CBH         LINE#         906
  C:90D1H         LINE#         907
  C:90D9H         LINE#         908
  C:90E3H         LINE#         910
  C:90ECH         LINE#         913
  C:90F9H         LINE#         914
  C:90FCH         LINE#         916
  C:90FEH         LINE#         917
  -------         ENDPROC       _PRINTDRV_ENABLEDISABLEBUMPERPEG
BL51 BANKED LINKER/LOCATER V6.22                                                      04/28/2015  17:26:03  PAGE 80


  -------         ENDMOD        PRINTDRIVER

  -------         MODULE        D2A
  C:0000H         SYMBOL        _ICE_DUMMY_
  D:00D4H         PUBLIC        DAC0CN
  D:0084H         PUBLIC        SFRPAGE
  D:00D4H         PUBLIC        DAC1CN
  D:00D3H         PUBLIC        DAC0H
  D:00D3H         PUBLIC        DAC1H
  D:00D2H         PUBLIC        DAC0L
  D:00D2H         PUBLIC        DAC1L
  C:94DBH         PUBLIC        _D2A0_Write
  C:9507H         PUBLIC        _D2A1_Write
  C:9B97H         PUBLIC        D2A0_Init
  C:9BA7H         PUBLIC        D2A1_Init
  -------         PROC          D2A0_INIT
  C:9B97H         LINE#         17
  C:9B97H         LINE#         18
  C:9B97H         LINE#         19
  C:9B9AH         LINE#         22
  C:9B9DH         LINE#         25
  C:9BA0H         LINE#         28
  C:9BA3H         LINE#         30
  C:9BA6H         LINE#         31
  -------         ENDPROC       D2A0_INIT
  -------         PROC          _D2A0_WRITE
  X:0E12H         SYMBOL        NewValue
  C:94DBH         LINE#         41
  C:94E3H         LINE#         42
  C:94E3H         LINE#         43
  C:94E6H         LINE#         46
  C:94F3H         LINE#         49
  C:9503H         LINE#         51
  C:9506H         LINE#         52
  -------         ENDPROC       _D2A0_WRITE
  -------         PROC          D2A1_INIT
  C:9BA7H         LINE#         61
  C:9BA7H         LINE#         62
  C:9BA7H         LINE#         63
  C:9BAAH         LINE#         66
  C:9BADH         LINE#         69
  C:9BB0H         LINE#         72
  C:9BB3H         LINE#         74
  C:9BB6H         LINE#         75
  -------         ENDPROC       D2A1_INIT
  -------         PROC          _D2A1_WRITE
  X:0E14H         SYMBOL        NewValue
  C:9507H         LINE#         85
  C:950FH         LINE#         86
  C:950FH         LINE#         87
  C:9512H         LINE#         90
  C:951FH         LINE#         93
  C:952FH         LINE#         95
  C:9532H         LINE#         96
  -------         ENDPROC       _D2A1_WRITE
  -------         ENDMOD        D2A

BL51 BANKED LINKER/LOCATER V6.22                                                      04/28/2015  17:26:03  PAGE 81


  -------         MODULE        E2PROMINTERFACE
  C:0000H         SYMBOL        _ICE_DUMMY_
  D:00B0H         PUBLIC        P3
  C:7629H         PUBLIC        _E2PROMGetReceivedData
  B:00B0H.0       PUBLIC        WRITE_PROTECT
  C:7EDCH         PUBLIC        _E2PROMWriteEnable
  C:5011H         PUBLIC        _E2PROMReadBlock
  C:9770H         PUBLIC        _E2PROMCallBack
  C:4387H         PUBLIC        _E2PROMWriteBlock
  C:57E0H         PUBLIC        _E2PROMWrite
  C:5DF3H         PUBLIC        _E2PROMReadByte
  C:0096H         PUBLIC        E2PROMInit
  X:08E7H         PUBLIC        E2PROMTransactionStatus
  X:08E8H         PUBLIC        WriteEnable
  X:08E9H         PUBLIC        E2PROMDataIn
  C:9452H         PUBLIC        _E2PROMGetWriteStatus
  -------         PROC          E2PROMINIT
  C:0096H         LINE#         69
  C:0096H         LINE#         70
  C:0096H         LINE#         71
  C:009CH         LINE#         72
  C:00A1H         LINE#         73
  -------         ENDPROC       E2PROMINIT
  -------         PROC          _E2PROMREADBYTE
  X:0BE2H         SYMBOL        DeviceNum
  X:0BE3H         SYMBOL        Address
  -------         DO            
  X:0BE5H         SYMBOL        Instruction
  X:0BE6H         SYMBOL        Addr8bit
  X:0BE7H         SYMBOL        Addr
  X:0BE8H         SYMBOL        Message
  -------         ENDDO         
  C:5DF3H         LINE#         89
  C:5E00H         LINE#         90
  C:5E00H         LINE#         95
  C:5E07H         LINE#         96
  C:5E0AH         LINE#         99
  C:5E10H         LINE#         102
  C:5E1DH         LINE#         103
  C:5E3BH         LINE#         104
  C:5E49H         LINE#         107
  C:5E58H         LINE#         108
  C:5E6BH         LINE#         109
  C:5E7FH         LINE#         110
  C:5E8FH         LINE#         113
  C:5E91H         LINE#         116
  C:5E9BH         LINE#         119
  C:5EC5H         LINE#         121
  C:5EC7H         LINE#         122
  -------         ENDPROC       _E2PROMREADBYTE
  -------         PROC          _E2PROMREADBLOCK
  X:0BA5H         SYMBOL        DeviceNum
  X:0BA6H         SYMBOL        Address
  X:0BA8H         SYMBOL        Length
  -------         DO            
  X:0BA9H         SYMBOL        Instruction
  X:0BAAH         SYMBOL        Addr8bit
BL51 BANKED LINKER/LOCATER V6.22                                                      04/28/2015  17:26:03  PAGE 82


  X:0BABH         SYMBOL        Addr
  X:0BACH         SYMBOL        index
  X:0BADH         SYMBOL        Message
  -------         ENDDO         
  C:5011H         LINE#         140
  C:5023H         LINE#         141
  C:5023H         LINE#         146
  C:502AH         LINE#         147
  C:502DH         LINE#         150
  C:5033H         LINE#         153
  C:5040H         LINE#         154
  C:505EH         LINE#         155
  C:506CH         LINE#         158
  C:507BH         LINE#         159
  C:508EH         LINE#         160
  C:50A2H         LINE#         162
  C:50B6H         LINE#         163
  C:50E5H         LINE#         166
  C:50E7H         LINE#         169
  C:50F1H         LINE#         172
  C:5126H         LINE#         174
  C:5128H         LINE#         175
  -------         ENDPROC       _E2PROMREADBLOCK
  -------         PROC          _E2PROMWRITE
  X:0BB9H         SYMBOL        DeviceNum
  X:0BBAH         SYMBOL        Address
  X:0BBCH         SYMBOL        Data
  -------         DO            
  X:0BBDH         SYMBOL        Instruction
  X:0BBEH         SYMBOL        Addr8bit
  X:0BBFH         SYMBOL        Addr
  X:0BC0H         SYMBOL        Message
  -------         ENDDO         
  C:57E0H         LINE#         192
  C:57F2H         LINE#         193
  C:57F2H         LINE#         198
  C:57FCH         LINE#         201
  C:5802H         LINE#         204
  C:580FH         LINE#         205
  C:582DH         LINE#         206
  C:583BH         LINE#         209
  C:584AH         LINE#         210
  C:585DH         LINE#         211
  C:5871H         LINE#         212
  C:5886H         LINE#         214
  C:588BH         LINE#         217
  C:5895H         LINE#         220
  C:58BFH         LINE#         222
  C:58C1H         LINE#         223
  -------         ENDPROC       _E2PROMWRITE
  -------         PROC          _E2PROMWRITEBLOCK
  X:0B48H         SYMBOL        DeviceNum
  X:0B49H         SYMBOL        Address
  X:0B4BH         SYMBOL        Data
  X:0B4EH         SYMBOL        Length
  -------         DO            
  X:0B4FH         SYMBOL        Instruction
BL51 BANKED LINKER/LOCATER V6.22                                                      04/28/2015  17:26:03  PAGE 83


  X:0B50H         SYMBOL        Addr8bit
  X:0B51H         SYMBOL        Addr
  X:0B52H         SYMBOL        index
  X:0B53H         SYMBOL        Message
  -------         ENDDO         
  C:4387H         LINE#         242
  C:439FH         LINE#         243
  C:439FH         LINE#         248
  C:43A9H         LINE#         251
  C:43AFH         LINE#         254
  C:43F7H         LINE#         255
  C:43FAH         LINE#         258
  C:4407H         LINE#         259
  C:4425H         LINE#         260
  C:4433H         LINE#         263
  C:4442H         LINE#         264
  C:4455H         LINE#         265
  C:4469H         LINE#         267
  C:447DH         LINE#         268
  C:44C7H         LINE#         270
  C:44CCH         LINE#         273
  C:44D6H         LINE#         276
  C:450BH         LINE#         278
  C:450DH         LINE#         279
  -------         ENDPROC       _E2PROMWRITEBLOCK
  -------         PROC          _E2PROMWRITEENABLE
  X:0DE2H         SYMBOL        DeviceNum
  -------         DO            
  X:0DE3H         SYMBOL        Message
  -------         ENDDO         
  C:7EDCH         LINE#         296
  C:7EE1H         LINE#         297
  C:7EE1H         LINE#         301
  C:7EE8H         LINE#         302
  C:7EEBH         LINE#         305
  C:7EF1H         LINE#         308
  C:7EF3H         LINE#         310
  C:7EF9H         LINE#         313
  C:7F08H         LINE#         314
  C:7F17H         LINE#         317
  C:7F21H         LINE#         320
  C:7F4BH         LINE#         322
  C:7F4DH         LINE#         323
  -------         ENDPROC       _E2PROMWRITEENABLE
  -------         PROC          _E2PROMCALLBACK
  X:0E2CH         SYMBOL        Status
  C:9770H         LINE#         336
  C:977AH         LINE#         338
  C:9782H         LINE#         339
  C:978AH         LINE#         341
  C:9790H         LINE#         342
  -------         ENDPROC       _E2PROMCALLBACK
  -------         PROC          _E2PROMGETRECEIVEDDATA
  X:0CB7H         SYMBOL        DeviceNum
  X:0CB8H         SYMBOL        Data
  X:0CBBH         SYMBOL        Length
  C:7629H         LINE#         355
BL51 BANKED LINKER/LOCATER V6.22                                                      04/28/2015  17:26:03  PAGE 84


  C:7639H         LINE#         356
  C:7639H         LINE#         358
  C:7642H         LINE#         359
  C:7645H         LINE#         361
  C:764FH         LINE#         362
  C:764FH         LINE#         363
  C:7658H         LINE#         364
  C:766EH         LINE#         366
  C:769BH         LINE#         367
  C:769BH         LINE#         370
  C:76A5H         LINE#         373
  C:76A8H         LINE#         375
  C:76ADH         LINE#         376
  -------         ENDPROC       _E2PROMGETRECEIVEDDATA
  -------         PROC          _E2PROMGETWRITESTATUS
  X:0E2DH         SYMBOL        DeviceNum
  C:9452H         LINE#         391
  C:9457H         LINE#         392
  C:9457H         LINE#         394
  C:9460H         LINE#         395
  C:9463H         LINE#         398
  C:946DH         LINE#         401
  C:9475H         LINE#         402
  C:9475H         LINE#         403
  C:9477H         LINE#         406
  C:947AH         LINE#         407
  C:947AH         LINE#         409
  C:947FH         LINE#         410
  -------         ENDPROC       _E2PROMGETWRITESTATUS
  -------         ENDMOD        E2PROMINTERFACE

  -------         MODULE        UTILS
  C:0000H         SYMBOL        _ICE_DUMMY_
  C:8172H         PUBLIC        _Utils_CalculateCheckSum
  -------         PROC          _UTILS_CALCULATECHECKSUM
  X:0C0FH         SYMBOL        Data
  X:0C12H         SYMBOL        Length
  -------         DO            
  X:0C13H         SYMBOL        i
  X:0C14H         SYMBOL        CheckSum
  -------         ENDDO         
  C:8172H         LINE#         19
  C:8182H         LINE#         20
  C:8182H         LINE#         22
  C:818AH         LINE#         24
  C:819EH         LINE#         25
  C:81CDH         LINE#         27
  C:81D5H         LINE#         28
  -------         ENDPROC       _UTILS_CALCULATECHECKSUM
  -------         ENDMOD        UTILS

  -------         MODULE        WATCHDOG
  C:0000H         SYMBOL        _ICE_DUMMY_
  D:00B0H         PUBLIC        P3
  C:99F4H         PUBLIC        _CommunicationLossTask
  X:0D37H         PUBLIC        SetRollerOffTaskHandle
  C:834FH         PUBLIC        _XilinxWatchDogTask
BL51 BANKED LINKER/LOCATER V6.22                                                      04/28/2015  17:26:03  PAGE 85


  C:9793H         PUBLIC        CommunicationLossTaskInit
  C:9C63H         PUBLIC        GetXilinxWatchdogTaskHandle
  C:9480H         PUBLIC        _EnableDisableCommLossTask
  C:9BB7H         PUBLIC        XilinxWatchdogInit
  C:9B5FH         PUBLIC        ResetCommunicationTimeout
  C:8BABH         PUBLIC        _SetRollerOffTask
  X:0D38H         PUBLIC        CommunicationLossTaskHandle
  X:0D39H         PUBLIC        CommLossTaskEnabled
  X:0D3AH         PUBLIC        XilinxWatchDogTaskHandle
  -------         PROC          XILINXWATCHDOGINIT
  C:9BB7H         LINE#         39
  C:9BB7H         LINE#         40
  C:9BB7H         LINE#         41
  C:9BC5H         LINE#         42
  -------         ENDPROC       XILINXWATCHDOGINIT
  -------         PROC          _XILINXWATCHDOGTASK
  X:0D33H         SYMBOL        Arg
  -------         DO            
  -------         DO            
  X:0D34H         SYMBOL        Msg
  -------         ENDDO         
  -------         ENDDO         
  C:834FH         LINE#         54
  C:8354H         LINE#         55
  C:8354H         LINE#         61
  C:8367H         LINE#         62
  C:8367H         LINE#         63
  C:8367H         LINE#         64
  C:8367H         LINE#         66
  C:836DH         LINE#         67
  C:8375H         LINE#         68
  C:8381H         LINE#         69
  C:8387H         LINE#         71
  C:838CH         LINE#         72
  C:838DH         LINE#         73
  C:838DH         LINE#         75
  C:838DH         LINE#         76
  C:8395H         LINE#         77
  C:8395H         LINE#         78
  C:839AH         LINE#         79
  C:83A3H         LINE#         80
  C:83A4H         LINE#         82
  C:83A9H         LINE#         83
  C:83A9H         LINE#         84
  C:83A9H         LINE#         86
  -------         ENDPROC       _XILINXWATCHDOGTASK
  -------         PROC          GETXILINXWATCHDOGTASKHANDLE
  C:9C63H         LINE#         96
  C:9C63H         LINE#         97
  C:9C63H         LINE#         98
  C:9C68H         LINE#         99
  -------         ENDPROC       GETXILINXWATCHDOGTASKHANDLE
  -------         PROC          COMMUNICATIONLOSSTASKINIT
  C:9793H         LINE#         109
  C:9793H         LINE#         110
  C:9793H         LINE#         111
  C:97A1H         LINE#         112
BL51 BANKED LINKER/LOCATER V6.22                                                      04/28/2015  17:26:03  PAGE 86


  C:97AFH         LINE#         113
  C:97B5H         LINE#         114
  -------         ENDPROC       COMMUNICATIONLOSSTASKINIT
  -------         PROC          RESETCOMMUNICATIONTIMEOUT
  C:9B5FH         LINE#         123
  C:9B5FH         LINE#         124
  C:9B5FH         LINE#         125
  C:9B67H         LINE#         126
  C:9B73H         LINE#         127
  -------         ENDPROC       RESETCOMMUNICATIONTIMEOUT
  -------         PROC          _COMMUNICATIONLOSSTASK
  X:0E2EH         SYMBOL        Arg
  C:99F4H         LINE#         138
  C:99F9H         LINE#         139
  C:99F9H         LINE#         141
  C:99FCH         LINE#         144
  C:9A01H         LINE#         147
  C:9A0BH         LINE#         149
  C:9A10H         LINE#         151
  C:9A10H         LINE#         152
  -------         ENDPROC       _COMMUNICATIONLOSSTASK
  -------         PROC          _ENABLEDISABLECOMMLOSSTASK
  X:0E2FH         SYMBOL        Enable
  C:9480H         LINE#         162
  C:9485H         LINE#         163
  C:9485H         LINE#         164
  C:948DH         LINE#         165
  C:948DH         LINE#         166
  C:9493H         LINE#         167
  C:949FH         LINE#         168
  C:94A0H         LINE#         170
  C:94A0H         LINE#         171
  C:94A5H         LINE#         172
  C:94ADH         LINE#         173
  C:94ADH         LINE#         174
  -------         ENDPROC       _ENABLEDISABLECOMMLOSSTASK
  -------         PROC          _SETROLLEROFFTASK
  X:0E30H         SYMBOL        Arg
  -------         DO            
  -------         ENDDO         
  C:8BABH         LINE#         176
  C:8BB0H         LINE#         177
  C:8BB0H         LINE#         183
  C:8BC3H         LINE#         184
  C:8BC3H         LINE#         185
  C:8BC3H         LINE#         186
  C:8BCBH         LINE#         187
  C:8BD1H         LINE#         189
  C:8BD6H         LINE#         190
  C:8BD7H         LINE#         192
  C:8BD7H         LINE#         193
  C:8BDDH         LINE#         194
  C:8BE3H         LINE#         196
  C:8BE8H         LINE#         197
  C:8BE9H         LINE#         199
  C:8BE9H         LINE#         200
  C:8BEEH         LINE#         201
BL51 BANKED LINKER/LOCATER V6.22                                                      04/28/2015  17:26:03  PAGE 87


  C:8BEEH         LINE#         202
  C:8BEEH         LINE#         204
  -------         ENDPROC       _SETROLLEROFFTASK
  -------         ENDMOD        WATCHDOG

  -------         MODULE        COMPARATOR
  C:0000H         SYMBOL        _ICE_DUMMY_
  D:0084H         PUBLIC        SFRPAGE
  D:0088H         PUBLIC        CPT0CN
  D:0088H         PUBLIC        CPT1CN
  C:9B33H         PUBLIC        Comparator0_Init
  C:9B49H         PUBLIC        Comparator1_Init
  -------         PROC          COMPARATOR0_INIT
  C:9B33H         LINE#         17
  C:9B33H         LINE#         18
  C:9B33H         LINE#         19
  C:9B36H         LINE#         22
  C:9B39H         LINE#         23
  C:9B3CH         LINE#         26
  C:9B3FH         LINE#         27
  C:9B42H         LINE#         30
  C:9B45H         LINE#         32
  C:9B48H         LINE#         33
  -------         ENDPROC       COMPARATOR0_INIT
  -------         PROC          COMPARATOR1_INIT
  C:9B49H         LINE#         43
  C:9B49H         LINE#         44
  C:9B49H         LINE#         45
  C:9B4CH         LINE#         48
  C:9B4FH         LINE#         49
  C:9B52H         LINE#         52
  C:9B55H         LINE#         53
  C:9B58H         LINE#         56
  C:9B5BH         LINE#         58
  C:9B5EH         LINE#         59
  -------         ENDPROC       COMPARATOR1_INIT
  -------         ENDMOD        COMPARATOR

  -------         MODULE        BUMPER
  C:0000H         SYMBOL        _ICE_DUMMY_
  X:0BEAH         PUBLIC        Bumper0Impact
  X:0BEBH         PUBLIC        Bumper1Impact
  C:8CFAH         PUBLIC        Bumper_init
  X:0BECH         PUBLIC        BumperResetTime
  C:0036H         PUBLIC        EnableBumperInterrupt
  C:8B65H         PUBLIC        _Bumper_SetParameters
  X:0BEEH         PUBLIC        SetImpactCount
  X:0BEFH         PUBLIC        Bumper0CurrImpactCount
  X:0BF0H         PUBLIC        Bumper1CurrImpactCount
  B:0088H.1       PUBLIC        IE0
  B:0088H.3       PUBLIC        IE1
  B:00A8H.0       PUBLIC        EX0
  B:0088H.0       PUBLIC        IT0
  B:0088H.2       PUBLIC        IT1
  C:9AE9H         PUBLIC        Bumper0Isr
  C:9B02H         PUBLIC        Bumper1Isr
  C:8DFBH         PUBLIC        _Bumper_SetOnOff
BL51 BANKED LINKER/LOCATER V6.22                                                      04/28/2015  17:26:03  PAGE 88


  C:5C40H         PUBLIC        _Bumper_ImpactDetectionTask
  X:0BF1H         PUBLIC        ImpactDetectionTaskHandle
  C:002EH         PUBLIC        DisableBumperInterrupt
  -------         PROC          BUMPER_INIT
  C:8CFAH         LINE#         53
  C:8CFAH         LINE#         54
  C:8CFAH         LINE#         56
  C:8CFDH         LINE#         57
  C:8D00H         LINE#         60
  C:8D03H         LINE#         61
  C:8D06H         LINE#         64
  C:8D08H         LINE#         67
  C:8D0AH         LINE#         69
  C:8D18H         LINE#         71
  C:8D1DH         LINE#         72
  C:8D22H         LINE#         73
  C:8D2AH         LINE#         74
  C:8D30H         LINE#         75
  C:8D35H         LINE#         76
  C:8D3AH         LINE#         77
  -------         ENDPROC       BUMPER_INIT
  -------         PROC          _BUMPER_SETPARAMETERS
  X:0CBCH         SYMBOL        Sensitivity
  X:0CBEH         SYMBOL        ResetTime
  X:0CC0H         SYMBOL        ImpactCount
  C:8B65H         LINE#         87
  C:8B7AH         LINE#         88
  C:8B7AH         LINE#         90
  C:8B85H         LINE#         91
  C:8B90H         LINE#         93
  C:8BA0H         LINE#         94
  C:8BAAH         LINE#         95
  -------         ENDPROC       _BUMPER_SETPARAMETERS
  -------         PROC          _BUMPER_SETONOFF
  X:0E31H         SYMBOL        OnOff
  C:8DFBH         LINE#         105
  C:8E00H         LINE#         106
  C:8E00H         LINE#         107
  C:8E08H         LINE#         108
  C:8E08H         LINE#         109
  C:8E0DH         LINE#         110
  C:8E12H         LINE#         111
  C:8E17H         LINE#         112
  C:8E1CH         LINE#         114
  C:8E1EH         LINE#         115
  C:8E20H         LINE#         117
  C:8E23H         LINE#         120
  C:8E2DH         LINE#         121
  C:8E2EH         LINE#         123
  C:8E2EH         LINE#         124
  C:8E31H         LINE#         127
  C:8E39H         LINE#         128
  C:8E39H         LINE#         129
  -------         ENDPROC       _BUMPER_SETONOFF
  -------         PROC          _BUMPER_IMPACTDETECTIONTASK
  X:0DE5H         SYMBOL        Arg
  -------         DO            
BL51 BANKED LINKER/LOCATER V6.22                                                      04/28/2015  17:26:03  PAGE 89


  X:0DE6H         SYMBOL        SendBumperImpactNotifiaction
  -------         DO            
  X:0DE7H         SYMBOL        Msg
  -------         ENDDO         
  -------         ENDDO         
  C:5C40H         LINE#         139
  C:5C45H         LINE#         140
  C:5C45H         LINE#         149
  C:5C58H         LINE#         150
  C:5C58H         LINE#         151
  C:5C58H         LINE#         152
  C:5C5DH         LINE#         153
  C:5C60H         LINE#         154
  C:5C70H         LINE#         155
  C:5C70H         LINE#         156
  C:5C78H         LINE#         157
  C:5C78H         LINE#         158
  C:5C7DH         LINE#         159
  C:5C8CH         LINE#         160
  C:5C8CH         LINE#         161
  C:5C91H         LINE#         162
  C:5C97H         LINE#         163
  C:5C97H         LINE#         164
  C:5C97H         LINE#         165
  C:5C9FH         LINE#         166
  C:5C9FH         LINE#         167
  C:5CA4H         LINE#         168
  C:5CB3H         LINE#         169
  C:5CB3H         LINE#         170
  C:5CB8H         LINE#         171
  C:5CBEH         LINE#         172
  C:5CBEH         LINE#         173
  C:5CBEH         LINE#         174
  C:5CBEH         LINE#         175
  C:5CC1H         LINE#         176
  C:5CC9H         LINE#         177
  C:5CC9H         LINE#         178
  C:5CCEH         LINE#         181
  C:5CD0H         LINE#         183
  C:5CD0H         LINE#         184
  C:5CD5H         LINE#         185
  C:5CD6H         LINE#         186
  C:5CD6H         LINE#         188
  C:5CD6H         LINE#         189
  C:5CD6H         LINE#         192
  C:5CDCH         LINE#         193
  C:5CFCH         LINE#         194
  C:5CFCH         LINE#         195
  C:5D01H         LINE#         196
  C:5D0EH         LINE#         197
  C:5D0FH         LINE#         199
  C:5D14H         LINE#         201
  C:5D15H         LINE#         202
  C:5D15H         LINE#         204
  C:5D15H         LINE#         205
  C:5D1AH         LINE#         206
  C:5D1AH         LINE#         207
BL51 BANKED LINKER/LOCATER V6.22                                                      04/28/2015  17:26:03  PAGE 90


  C:5D1AH         LINE#         208
  -------         ENDPROC       _BUMPER_IMPACTDETECTIONTASK
  -------         PROC          BUMPER0ISR
  C:9AE9H         LINE#         221
  C:9AEFH         LINE#         224
  C:9AF5H         LINE#         225
  C:9AFBH         LINE#         226
  -------         ENDPROC       BUMPER0ISR
  -------         PROC          BUMPER1ISR
  C:9B02H         LINE#         239
  C:9B08H         LINE#         242
  C:9B0EH         LINE#         243
  C:9B14H         LINE#         244
  -------         ENDPROC       BUMPER1ISR
  -------         PROC          DISABLEBUMPERINTERRUPT
  C:002EH         LINE#         247
  C:002EH         LINE#         248
  C:002EH         LINE#         250
  C:0030H         LINE#         255
  -------         ENDPROC       DISABLEBUMPERINTERRUPT
  -------         PROC          ENABLEBUMPERINTERRUPT
  C:0036H         LINE#         259
  C:0036H         LINE#         260
  C:0036H         LINE#         262
  C:0038H         LINE#         266
  -------         ENDPROC       ENABLEBUMPERINTERRUPT
  -------         ENDMOD        BUMPER

  -------         MODULE        MSGDECODEOHDB
  C:0000H         SYMBOL        _ICE_DUMMY_
  X:0550H         PUBLIC        SetHeatersTempTaskHandle
  X:0551H         PUBLIC        GetAmbientTempTaskParams
  X:0553H         PUBLIC        FreeCellIndex
  D:00B0H         PUBLIC        P3
  X:0554H         PUBLIC        SetBumperParamsTaskParams
  X:0556H         PUBLIC        IsHeadTempOkTaskParams
  X:0558H         PUBLIC        SetHeadDataNackTaskHandle
  X:0559H         PUBLIC        GetRollerStatusTaskHandle
  X:055AH         PUBLIC        SetDebugModeTaskHandle
  C:86EDH         PUBLIC        _SetHeatersStandbyTempTask
  X:055BH         PUBLIC        FireAllTaskHandle
  X:055CH         PUBLIC        SetHeadsVacuumTaskParams
  X:055EH         PUBLIC        GetPowerSuppliesTaskParams
  X:0560H         PUBLIC        OHDBPotentiometerWriteTaskHandle
  X:0561H         PUBLIC        XilinxWriteTaskParams
  X:0566H         PUBLIC        OHDBGetA2DSWVersionTaskParams
  C:6870H         PUBLIC        _ResetDriverStateTask
  C:7931H         PUBLIC        _GetHeatersStatusTask
  X:0568H         PUBLIC        GetHeadDataTaskParams
  X:056BH         PUBLIC        OHDBGetA2DReadingsTaskHandle
  C:5F9CH         PUBLIC        _SetRollerOnOffTask
  C:4CA6H         PUBLIC        _XilinxReadTask
  X:056CH         PUBLIC        GetVacuumSensorTaskParams
  C:83AAH         PUBLIC        _GetAmbientTempTask
  X:056EH         PUBLIC        OHDBPingTaskHandle
  X:056FH         PUBLIC        SetBumperPegOnOffTaskParams
  X:0572H         PUBLIC        SetRollerSpeedTaskParams
BL51 BANKED LINKER/LOCATER V6.22                                                      04/28/2015  17:26:03  PAGE 91


  X:0576H         PUBLIC        SetHeatersTempTaskParams
  X:0578H         PUBLIC        OHDBPotentiometerTaskParams
  C:4001H         PUBLIC        _SetPrintingPassParamsTask
  X:057CH         PUBLIC        SetPrintingPassTaskParams
  C:873CH         PUBLIC        _SetBumperParamsTask
  C:7832H         PUBLIC        _IsHeadTempOkTask
  X:0588H         PUBLIC        E2PROMReadTaskHandle
  C:69C1H         PUBLIC        _PotentiometerWriteTask
  X:0589H         PUBLIC        SetHeadDataNackTaskParams
  X:058BH         PUBLIC        GetRollerStatusTaskParams
  X:058FH         PUBLIC        SetDebugModeTaskParams
  C:8829H         PUBLIC        _SetHeadsVacuumTask
  X:0591H         PUBLIC        ApplyDefaultParamsTaskHandle
  C:7B21H         PUBLIC        _GetPowerSuppliesTask
  C:7410H         PUBLIC        _XilinxWriteTask
  X:0592H         PUBLIC        SetMaterialCoolingFansTaskHandle
  C:8108H         PUBLIC        _OHDBGetA2DSWVersionTask
  X:0593H         PUBLIC        GetHardwareVersionTaskHandle
  C:5D1BH         PUBLIC        _GetHeadDataTask
  X:0594H         PUBLIC        PULSE1_DWELL_REGS
  X:059CH         PUBLIC        OHDBGetA2DReadingsTaskParams
  C:8505H         PUBLIC        _GetVacuumSensorTask
  C:6509H         PUBLIC        _SetBumperPegOnOffTask
  C:6D6AH         PUBLIC        _SetRollerSpeedTask
  X:059EH         PUBLIC        E2PROMWriteTaskHandle
  C:878BH         PUBLIC        _SetHeatersTempTask
  X:059FH         PUBLIC        OHDBPingTaskParams
  C:00A6H         PUBLIC        _MessageDecodeOHDB
  X:05A1H         PUBLIC        PULSE2_WIDTH_REGS
  C:85FFH         PUBLIC        _SetHeadDataNackTask
  C:6391H         PUBLIC        _GetRollerStatusTask
  X:05A9H         PUBLIC        GetFireAllStatusTaskHandle
  X:05AAH         PUBLIC        E2PROMReadTaskParams
  C:88C7H         PUBLIC        _SetDebugModeTask
  X:05AFH         PUBLIC        ResetDriverCircuitTaskHandle
  X:05B0H         PUBLIC        DisablePrintingCircuitryTaskHandle
  X:05B1H         PUBLIC        SetPrintingHeadsParamsTaskHandle
  X:05B2H         PUBLIC        GetMaterialLevelTaskHandle
  X:05B3H         PUBLIC        ApplyDefaultParamsTaskParams
  X:05B5H         PUBLIC        IsHeadsVacuumOkTaskHandle
  X:05B6H         PUBLIC        SetMaterialCoolingFansTaskParams
  X:05B8H         PUBLIC        GetHardwareVersionTaskParams
  X:05BAH         PUBLIC        SetHeatersOnOffTaskHandle
  C:7730H         PUBLIC        _OHDBGetA2DReadingsTask
  X:05BBH         PUBLIC        SetBumperImpactOnOffTaskHandle
  X:05BCH         PUBLIC        CurrMsgIndex
  C:8BEFH         PUBLIC        _OHDBPingTask
  X:05BDH         PUBLIC        GetSoftwareVersionTaskHandle
  X:05BEH         PUBLIC        E2PROMWriteTaskParams
  X:05C4H         PUBLIC        SetVirtualEncoderTaskHandle
  C:77B2H         PUBLIC        _OHDBMessageDecodeTask
  X:05C5H         PUBLIC        EnablePrintingCircuitryTaskHandle
  C:3B65H         PUBLIC        MessageDecodeInitOHDB
  X:05C6H         PUBLIC        PULSE1_FT_REGS
  C:6141H         PUBLIC        _E2PROMReadTask
  X:05CEH         PUBLIC        GetHeatersStandbyTempTaskHandle
  X:05CFH         PUBLIC        GetFireAllStatusTaskParams
BL51 BANKED LINKER/LOCATER V6.22                                                      04/28/2015  17:26:03  PAGE 92


  X:05D1H         PUBLIC        ResetDriverCircuitTaskParams
  X:05D3H         PUBLIC        DisablePrintingCircuitryTaskParams
  X:05D5H         PUBLIC        GetMaterialLevelTaskParams
  C:5334H         PUBLIC        _ApplyDefaultParamsTask
  C:8878H         PUBLIC        _SetMaterialCoolingFansTask
  X:05D7H         PUBLIC        GetHeadVoltageTaskHandle
  C:7AA5H         PUBLIC        _GetPrintingHeadVoltageTask
  C:6A63H         PUBLIC        _GetHardwareVersionTask
  X:05D8H         PUBLIC        SetHeatersStandbyTempTaskHandle
  X:05D9H         PUBLIC        SetHeatersOnOffTaskParams
  X:05DBH         PUBLIC        SetBumperImpactOnOffTaskParams
  C:5A84H         PUBLIC        _E2PROMWriteTask
  X:05DDH         PUBLIC        GetSoftwareVersionTaskParams
  X:05DFH         PUBLIC        SetVirtualEncoderTaskParams
  X:05E2H         PUBLIC        SetHeadVoltageTaskHandle
  X:05E3H         PUBLIC        EnablePrintingCircuitryTaskParams
  C:58C2H         PUBLIC        _SetPrintingHeadVoltageTask
  X:05E5H         PUBLIC        ResetDriverStateTaskHandle
  X:05E6H         PUBLIC        GetHeatersStatusTaskHandle
  D:00EFH         PUBLIC        RSTSRC
  C:855BH         PUBLIC        _GetFireAllStatusTask
  X:05E7H         PUBLIC        SetRollerOnOffTaskHandle
  C:5230H         PUBLIC        _ResetDriverCircuitTask
  C:67C5H         PUBLIC        _DisablePrintingCircuitryTask
  X:05E8H         PUBLIC        XilinxReadTaskHandle
  X:05E9H         PUBLIC        GetHeatersStandbyTempTaskParams
  C:32BFH         PUBLIC        _SetPrintingHeadsParamsTask
  X:05EBH         PUBLIC        GetAmbientTempTaskHandle
  X:05ECH         PUBLIC        SetPrintingHeadsTaskParams
  C:7A29H         PUBLIC        _GetMaterialLevelTask
  X:0611H         PUBLIC        SetPrintingPassParamsTaskHandle
  C:89FDH         PUBLIC        _IsHeadsVacuumOkTask
  X:0612H         PUBLIC        SetBumperParamsTaskHandle
  X:0613H         PUBLIC        IsHeadTempOkTaskHandle
  X:0614H         PUBLIC        GetHeadVoltageTaskParams
  X:0616H         PUBLIC        PULSE_DELAY_REGS
  D:0022H         PUBLIC        HeadIndex
  C:87DAH         PUBLIC        _SetHeatersOnOffTask
  C:8916H         PUBLIC        _SetBumperImpactOnOffTask
  X:061EH         PUBLIC        SetHeatersStandbyTempTaskParams
  X:0620H         PUBLIC        SetHeadsVacuumTaskHandle
  X:0621H         PUBLIC        IsHeadsVacuumOkTaskParms
  C:85AFH         PUBLIC        _GetSoftwareVersionTask
  X:0623H         PUBLIC        GetPowerSuppliesTaskHandle
  X:0624H         PUBLIC        XilinxWriteTaskHandle
  X:0625H         PUBLIC        OHDBGetA2DSWVersionTaskHandle
  C:551DH         PUBLIC        _EnablePrintingCircuitryTask
  X:0626H         PUBLIC        SetHeadVoltageTaskParams
  X:0630H         PUBLIC        GetHeadDataTaskHandle
  X:0631H         PUBLIC        MsgRingBuffPtr
  X:0633H         PUBLIC        ResetDriverStateTaskParams
  X:0635H         PUBLIC        GetHeatersStatusTaskParams
  C:79ADH         PUBLIC        _GetHeatersStandbyTempTask
  X:0637H         PUBLIC        GetVacuumSensorTaskHandle
  X:0638H         PUBLIC        SetRollerOnOffTaskParams
  X:063BH         PUBLIC        SetBumperPegOnOffTaskHandle
  X:063CH         PUBLIC        SetRollerSpeedTaskHandle
BL51 BANKED LINKER/LOCATER V6.22                                                      04/28/2015  17:26:03  PAGE 93


  X:063DH         PUBLIC        XilinxReadTaskParams
  -------         PROC          MESSAGEDECODEINITOHDB
  C:3B65H         LINE#         587
  C:3B65H         LINE#         588
  C:3B65H         LINE#         593
  C:3B74H         LINE#         594
  C:3B85H         LINE#         595
  C:3B93H         LINE#         596
  C:3BA1H         LINE#         597
  C:3BAFH         LINE#         598
  C:3BBDH         LINE#         599
  C:3BCBH         LINE#         600
  C:3BD9H         LINE#         601
  C:3BE7H         LINE#         602
  C:3BF5H         LINE#         603
  C:3C03H         LINE#         604
  C:3C11H         LINE#         605
  C:3C1FH         LINE#         606
  C:3C2DH         LINE#         607
  C:3C3BH         LINE#         608
  C:3C49H         LINE#         609
  C:3C57H         LINE#         610
  C:3C65H         LINE#         611
  C:3C73H         LINE#         612
  C:3C81H         LINE#         613
  C:3C8FH         LINE#         614
  C:3C9DH         LINE#         615
  C:3CABH         LINE#         616
  C:3CB9H         LINE#         617
  C:3CC7H         LINE#         618
  C:3CD5H         LINE#         619
  C:3CE3H         LINE#         620
  C:3CF1H         LINE#         621
  C:3CFFH         LINE#         622
  C:3D0DH         LINE#         623
  C:3D1BH         LINE#         624
  C:3D29H         LINE#         625
  C:3D37H         LINE#         626
  C:3D45H         LINE#         627
  C:3D53H         LINE#         628
  C:3D61H         LINE#         629
  C:3D6FH         LINE#         630
  C:3D7DH         LINE#         631
  C:3D8BH         LINE#         632
  C:3D99H         LINE#         633
  C:3DA7H         LINE#         634
  C:3DB5H         LINE#         635
  C:3DC3H         LINE#         636
  C:3DD1H         LINE#         637
  C:3DDFH         LINE#         639
  -------         ENDPROC       MESSAGEDECODEINITOHDB
  -------         PROC          _OHDBMESSAGEDECODETASK
  X:0CC1H         SYMBOL        Arg
  -------         DO            
  X:0CC2H         SYMBOL        MsgHandle
  X:0CC4H         SYMBOL        Message
  -------         ENDDO         
BL51 BANKED LINKER/LOCATER V6.22                                                      04/28/2015  17:26:03  PAGE 94


  C:77B2H         LINE#         648
  C:77B7H         LINE#         649
  C:77B7H         LINE#         653
  C:77D0H         LINE#         654
  C:77E2H         LINE#         655
  C:77E2H         LINE#         656
  C:7807H         LINE#         658
  C:7818H         LINE#         659
  C:7829H         LINE#         660
  C:7829H         LINE#         662
  C:7831H         LINE#         663
  -------         ENDPROC       _OHDBMESSAGEDECODETASK
  -------         PROC          _MESSAGEDECODEOHDB
  X:0BAFH         SYMBOL        Message
  -------         DO            
  X:0BB2H         SYMBOL        MsgId
  X:0BB3H         SYMBOL        TransactionId
  X:0BB4H         SYMBOL        SrcId
  X:0BB5H         SYMBOL        DestId
  -------         DO            
  X:0BB6H         SYMBOL        SetHeatersTemp
  X:0BB6H         SYMBOL        StandbyTempMsg
  X:0BB6H         SYMBOL        VacuumMsg
  X:0BB6H         SYMBOL        RollerOnOffMsg
  X:0BB6H         SYMBOL        RollerSpeedMsg
  X:0BB6H         SYMBOL        BumperMsg
  X:0BB6H         SYMBOL        Msg
  X:0BB6H         SYMBOL        PrintingParamsMsg
  X:0BB6H         SYMBOL        PassParamsMsg
  X:0BB6H         SYMBOL        SetHeatersOnOff
  X:0BB6H         SYMBOL        SetBumperOnOff
  X:0BB6H         SYMBOL        FireAllMsg
  X:0BB6H         SYMBOL        VolatgesMsg
  X:0BB6H         SYMBOL        SetHeadDataMsg
  X:0BB6H         SYMBOL        GetHeadDataMsg
  X:0BB6H         SYMBOL        FansMsg
  X:0BB6H         SYMBOL        DebugModeMsg
  X:0BB6H         SYMBOL        BumperPegMsg
  X:0BB6H         SYMBOL        VirtualEncoderMsg
  X:0BB6H         SYMBOL        WriteMsg
  X:0BB6H         SYMBOL        PotentiometerMsg
  X:0BB6H         SYMBOL        WriteMsg
  X:0BB6H         SYMBOL        ReadMsg
  X:0BB6H         SYMBOL        ReadMsg
  -------         ENDDO         
  -------         DO            
  X:0BB6H         SYMBOL        StandbyTempMsg
  X:0BB6H         SYMBOL        VacuumMsg
  X:0BB6H         SYMBOL        RollerOnOffMsg
  X:0BB6H         SYMBOL        RollerSpeedMsg
  X:0BB6H         SYMBOL        BumperMsg
  X:0BB6H         SYMBOL        Msg
  X:0BB6H         SYMBOL        PrintingParamsMsg
  X:0BB6H         SYMBOL        PassParamsMsg
  X:0BB6H         SYMBOL        SetHeatersOnOff
  X:0BB6H         SYMBOL        SetBumperOnOff
  X:0BB6H         SYMBOL        FireAllMsg
BL51 BANKED LINKER/LOCATER V6.22                                                      04/28/2015  17:26:03  PAGE 95


  X:0BB6H         SYMBOL        VolatgesMsg
  X:0BB6H         SYMBOL        SetHeadDataMsg
  X:0BB6H         SYMBOL        GetHeadDataMsg
  X:0BB6H         SYMBOL        FansMsg
  X:0BB6H         SYMBOL        DebugModeMsg
  X:0BB6H         SYMBOL        BumperPegMsg
  X:0BB6H         SYMBOL        VirtualEncoderMsg
  X:0BB6H         SYMBOL        WriteMsg
  X:0BB6H         SYMBOL        PotentiometerMsg
  X:0BB6H         SYMBOL        WriteMsg
  X:0BB6H         SYMBOL        ReadMsg
  X:0BB6H         SYMBOL        ReadMsg
  -------         ENDDO         
  -------         DO            
  X:0BB6H         SYMBOL        VacuumMsg
  X:0BB6H         SYMBOL        RollerOnOffMsg
  X:0BB6H         SYMBOL        RollerSpeedMsg
  X:0BB6H         SYMBOL        BumperMsg
  X:0BB6H         SYMBOL        Msg
  X:0BB6H         SYMBOL        PrintingParamsMsg
  X:0BB6H         SYMBOL        PassParamsMsg
  X:0BB6H         SYMBOL        SetHeatersOnOff
  X:0BB6H         SYMBOL        SetBumperOnOff
  X:0BB6H         SYMBOL        FireAllMsg
  X:0BB6H         SYMBOL        VolatgesMsg
  X:0BB6H         SYMBOL        SetHeadDataMsg
  X:0BB6H         SYMBOL        GetHeadDataMsg
  X:0BB6H         SYMBOL        FansMsg
  X:0BB6H         SYMBOL        DebugModeMsg
  X:0BB6H         SYMBOL        BumperPegMsg
  X:0BB6H         SYMBOL        VirtualEncoderMsg
  X:0BB6H         SYMBOL        WriteMsg
  X:0BB6H         SYMBOL        PotentiometerMsg
  X:0BB6H         SYMBOL        WriteMsg
  X:0BB6H         SYMBOL        ReadMsg
  X:0BB6H         SYMBOL        ReadMsg
  -------         ENDDO         
  -------         DO            
  X:0BB6H         SYMBOL        RollerOnOffMsg
  X:0BB6H         SYMBOL        RollerSpeedMsg
  X:0BB6H         SYMBOL        BumperMsg
  X:0BB6H         SYMBOL        Msg
  X:0BB6H         SYMBOL        PrintingParamsMsg
  X:0BB6H         SYMBOL        PassParamsMsg
  X:0BB6H         SYMBOL        SetHeatersOnOff
  X:0BB6H         SYMBOL        SetBumperOnOff
  X:0BB6H         SYMBOL        FireAllMsg
  X:0BB6H         SYMBOL        VolatgesMsg
  X:0BB6H         SYMBOL        SetHeadDataMsg
  X:0BB6H         SYMBOL        GetHeadDataMsg
  X:0BB6H         SYMBOL        FansMsg
  X:0BB6H         SYMBOL        DebugModeMsg
  X:0BB6H         SYMBOL        BumperPegMsg
  X:0BB6H         SYMBOL        VirtualEncoderMsg
  X:0BB6H         SYMBOL        WriteMsg
  X:0BB6H         SYMBOL        PotentiometerMsg
  X:0BB6H         SYMBOL        WriteMsg
BL51 BANKED LINKER/LOCATER V6.22                                                      04/28/2015  17:26:03  PAGE 96


  X:0BB6H         SYMBOL        ReadMsg
  X:0BB6H         SYMBOL        ReadMsg
  -------         ENDDO         
  -------         DO            
  X:0BB6H         SYMBOL        RollerSpeedMsg
  X:0BB6H         SYMBOL        BumperMsg
  X:0BB6H         SYMBOL        Msg
  X:0BB6H         SYMBOL        PrintingParamsMsg
  X:0BB6H         SYMBOL        PassParamsMsg
  X:0BB6H         SYMBOL        SetHeatersOnOff
  X:0BB6H         SYMBOL        SetBumperOnOff
  X:0BB6H         SYMBOL        FireAllMsg
  X:0BB6H         SYMBOL        VolatgesMsg
  X:0BB6H         SYMBOL        SetHeadDataMsg
  X:0BB6H         SYMBOL        GetHeadDataMsg
  X:0BB6H         SYMBOL        FansMsg
  X:0BB6H         SYMBOL        DebugModeMsg
  X:0BB6H         SYMBOL        BumperPegMsg
  X:0BB6H         SYMBOL        VirtualEncoderMsg
  X:0BB6H         SYMBOL        WriteMsg
  X:0BB6H         SYMBOL        PotentiometerMsg
  X:0BB6H         SYMBOL        WriteMsg
  X:0BB6H         SYMBOL        ReadMsg
  X:0BB6H         SYMBOL        ReadMsg
  -------         ENDDO         
  -------         DO            
  X:0BB6H         SYMBOL        BumperMsg
  X:0BB6H         SYMBOL        Msg
  X:0BB6H         SYMBOL        PrintingParamsMsg
  X:0BB6H         SYMBOL        PassParamsMsg
  X:0BB6H         SYMBOL        SetHeatersOnOff
  X:0BB6H         SYMBOL        SetBumperOnOff
  X:0BB6H         SYMBOL        FireAllMsg
  X:0BB6H         SYMBOL        VolatgesMsg
  X:0BB6H         SYMBOL        SetHeadDataMsg
  X:0BB6H         SYMBOL        GetHeadDataMsg
  X:0BB6H         SYMBOL        FansMsg
  X:0BB6H         SYMBOL        DebugModeMsg
  X:0BB6H         SYMBOL        BumperPegMsg
  X:0BB6H         SYMBOL        VirtualEncoderMsg
  X:0BB6H         SYMBOL        WriteMsg
  X:0BB6H         SYMBOL        PotentiometerMsg
  X:0BB6H         SYMBOL        WriteMsg
  X:0BB6H         SYMBOL        ReadMsg
  X:0BB6H         SYMBOL        ReadMsg
  -------         ENDDO         
  -------         DO            
  X:0BB6H         SYMBOL        Msg
  X:0BB6H         SYMBOL        PrintingParamsMsg
  X:0BB6H         SYMBOL        PassParamsMsg
  X:0BB6H         SYMBOL        SetHeatersOnOff
  X:0BB6H         SYMBOL        SetBumperOnOff
  X:0BB6H         SYMBOL        FireAllMsg
  X:0BB6H         SYMBOL        VolatgesMsg
  X:0BB6H         SYMBOL        SetHeadDataMsg
  X:0BB6H         SYMBOL        GetHeadDataMsg
  X:0BB6H         SYMBOL        FansMsg
BL51 BANKED LINKER/LOCATER V6.22                                                      04/28/2015  17:26:03  PAGE 97


  X:0BB6H         SYMBOL        DebugModeMsg
  X:0BB6H         SYMBOL        BumperPegMsg
  X:0BB6H         SYMBOL        VirtualEncoderMsg
  X:0BB6H         SYMBOL        WriteMsg
  X:0BB6H         SYMBOL        PotentiometerMsg
  X:0BB6H         SYMBOL        WriteMsg
  X:0BB6H         SYMBOL        ReadMsg
  X:0BB6H         SYMBOL        ReadMsg
  -------         ENDDO         
  -------         DO            
  X:0BB6H         SYMBOL        PrintingParamsMsg
  X:0BB6H         SYMBOL        PassParamsMsg
  X:0BB6H         SYMBOL        SetHeatersOnOff
  X:0BB6H         SYMBOL        SetBumperOnOff
  X:0BB6H         SYMBOL        FireAllMsg
  X:0BB6H         SYMBOL        VolatgesMsg
  X:0BB6H         SYMBOL        SetHeadDataMsg
  X:0BB6H         SYMBOL        GetHeadDataMsg
  X:0BB6H         SYMBOL        FansMsg
  X:0BB6H         SYMBOL        DebugModeMsg
  X:0BB6H         SYMBOL        BumperPegMsg
  X:0BB6H         SYMBOL        VirtualEncoderMsg
  X:0BB6H         SYMBOL        WriteMsg
  X:0BB6H         SYMBOL        PotentiometerMsg
  X:0BB6H         SYMBOL        WriteMsg
  X:0BB6H         SYMBOL        ReadMsg
  X:0BB6H         SYMBOL        ReadMsg
  -------         ENDDO         
  -------         DO            
  X:0BB6H         SYMBOL        PassParamsMsg
  X:0BB6H         SYMBOL        SetHeatersOnOff
  X:0BB6H         SYMBOL        SetBumperOnOff
  X:0BB6H         SYMBOL        FireAllMsg
  X:0BB6H         SYMBOL        VolatgesMsg
  X:0BB6H         SYMBOL        SetHeadDataMsg
  X:0BB6H         SYMBOL        GetHeadDataMsg
  X:0BB6H         SYMBOL        FansMsg
  X:0BB6H         SYMBOL        DebugModeMsg
  X:0BB6H         SYMBOL        BumperPegMsg
  X:0BB6H         SYMBOL        VirtualEncoderMsg
  X:0BB6H         SYMBOL        WriteMsg
  X:0BB6H         SYMBOL        PotentiometerMsg
  X:0BB6H         SYMBOL        WriteMsg
  X:0BB6H         SYMBOL        ReadMsg
  X:0BB6H         SYMBOL        ReadMsg
  -------         ENDDO         
  -------         DO            
  X:0BB6H         SYMBOL        SetHeatersOnOff
  X:0BB6H         SYMBOL        SetBumperOnOff
  X:0BB6H         SYMBOL        FireAllMsg
  X:0BB6H         SYMBOL        VolatgesMsg
  X:0BB6H         SYMBOL        SetHeadDataMsg
  X:0BB6H         SYMBOL        GetHeadDataMsg
  X:0BB6H         SYMBOL        FansMsg
  X:0BB6H         SYMBOL        DebugModeMsg
  X:0BB6H         SYMBOL        BumperPegMsg
  X:0BB6H         SYMBOL        VirtualEncoderMsg
BL51 BANKED LINKER/LOCATER V6.22                                                      04/28/2015  17:26:03  PAGE 98


  X:0BB6H         SYMBOL        WriteMsg
  X:0BB6H         SYMBOL        PotentiometerMsg
  X:0BB6H         SYMBOL        WriteMsg
  X:0BB6H         SYMBOL        ReadMsg
  X:0BB6H         SYMBOL        ReadMsg
  -------         ENDDO         
  -------         DO            
  X:0BB6H         SYMBOL        SetBumperOnOff
  X:0BB6H         SYMBOL        FireAllMsg
  X:0BB6H         SYMBOL        VolatgesMsg
  X:0BB6H         SYMBOL        SetHeadDataMsg
  X:0BB6H         SYMBOL        GetHeadDataMsg
  X:0BB6H         SYMBOL        FansMsg
  X:0BB6H         SYMBOL        DebugModeMsg
  X:0BB6H         SYMBOL        BumperPegMsg
  X:0BB6H         SYMBOL        VirtualEncoderMsg
  X:0BB6H         SYMBOL        WriteMsg
  X:0BB6H         SYMBOL        PotentiometerMsg
  X:0BB6H         SYMBOL        WriteMsg
  X:0BB6H         SYMBOL        ReadMsg
  X:0BB6H         SYMBOL        ReadMsg
  -------         ENDDO         
  -------         DO            
  X:0BB6H         SYMBOL        FireAllMsg
  X:0BB6H         SYMBOL        VolatgesMsg
  X:0BB6H         SYMBOL        SetHeadDataMsg
  X:0BB6H         SYMBOL        GetHeadDataMsg
  X:0BB6H         SYMBOL        FansMsg
  X:0BB6H         SYMBOL        DebugModeMsg
  X:0BB6H         SYMBOL        BumperPegMsg
  X:0BB6H         SYMBOL        VirtualEncoderMsg
  X:0BB6H         SYMBOL        WriteMsg
  X:0BB6H         SYMBOL        PotentiometerMsg
  X:0BB6H         SYMBOL        WriteMsg
  X:0BB6H         SYMBOL        ReadMsg
  X:0BB6H         SYMBOL        ReadMsg
  -------         ENDDO         
  -------         DO            
  X:0BB6H         SYMBOL        VolatgesMsg
  X:0BB6H         SYMBOL        SetHeadDataMsg
  X:0BB6H         SYMBOL        GetHeadDataMsg
  X:0BB6H         SYMBOL        FansMsg
  X:0BB6H         SYMBOL        DebugModeMsg
  X:0BB6H         SYMBOL        BumperPegMsg
  X:0BB6H         SYMBOL        VirtualEncoderMsg
  X:0BB6H         SYMBOL        WriteMsg
  X:0BB6H         SYMBOL        PotentiometerMsg
  X:0BB6H         SYMBOL        WriteMsg
  X:0BB6H         SYMBOL        ReadMsg
  X:0BB6H         SYMBOL        ReadMsg
  -------         ENDDO         
  -------         DO            
  X:0BB6H         SYMBOL        SetHeadDataMsg
  X:0BB6H         SYMBOL        GetHeadDataMsg
  X:0BB6H         SYMBOL        FansMsg
  X:0BB6H         SYMBOL        DebugModeMsg
  X:0BB6H         SYMBOL        BumperPegMsg
BL51 BANKED LINKER/LOCATER V6.22                                                      04/28/2015  17:26:03  PAGE 99


  X:0BB6H         SYMBOL        VirtualEncoderMsg
  X:0BB6H         SYMBOL        WriteMsg
  X:0BB6H         SYMBOL        PotentiometerMsg
  X:0BB6H         SYMBOL        WriteMsg
  X:0BB6H         SYMBOL        ReadMsg
  X:0BB6H         SYMBOL        ReadMsg
  -------         ENDDO         
  -------         DO            
  X:0BB6H         SYMBOL        GetHeadDataMsg
  X:0BB6H         SYMBOL        FansMsg
  X:0BB6H         SYMBOL        DebugModeMsg
  X:0BB6H         SYMBOL        BumperPegMsg
  X:0BB6H         SYMBOL        VirtualEncoderMsg
  X:0BB6H         SYMBOL        WriteMsg
  X:0BB6H         SYMBOL        PotentiometerMsg
  X:0BB6H         SYMBOL        WriteMsg
  X:0BB6H         SYMBOL        ReadMsg
  X:0BB6H         SYMBOL        ReadMsg
  -------         ENDDO         
  -------         DO            
  X:0BB6H         SYMBOL        FansMsg
  X:0BB6H         SYMBOL        DebugModeMsg
  X:0BB6H         SYMBOL        BumperPegMsg
  X:0BB6H         SYMBOL        VirtualEncoderMsg
  X:0BB6H         SYMBOL        WriteMsg
  X:0BB6H         SYMBOL        PotentiometerMsg
  X:0BB6H         SYMBOL        WriteMsg
  X:0BB6H         SYMBOL        ReadMsg
  X:0BB6H         SYMBOL        ReadMsg
  -------         ENDDO         
  -------         DO            
  X:0BB6H         SYMBOL        DebugModeMsg
  X:0BB6H         SYMBOL        BumperPegMsg
  X:0BB6H         SYMBOL        VirtualEncoderMsg
  X:0BB6H         SYMBOL        WriteMsg
  X:0BB6H         SYMBOL        PotentiometerMsg
  X:0BB6H         SYMBOL        WriteMsg
  X:0BB6H         SYMBOL        ReadMsg
  X:0BB6H         SYMBOL        ReadMsg
  -------         ENDDO         
  -------         DO            
  X:0BB6H         SYMBOL        BumperPegMsg
  X:0BB6H         SYMBOL        VirtualEncoderMsg
  X:0BB6H         SYMBOL        WriteMsg
  X:0BB6H         SYMBOL        PotentiometerMsg
  X:0BB6H         SYMBOL        WriteMsg
  X:0BB6H         SYMBOL        ReadMsg
  X:0BB6H         SYMBOL        ReadMsg
  -------         ENDDO         
  -------         DO            
  X:0BB6H         SYMBOL        VirtualEncoderMsg
  X:0BB6H         SYMBOL        WriteMsg
  X:0BB6H         SYMBOL        PotentiometerMsg
  X:0BB6H         SYMBOL        WriteMsg
  X:0BB6H         SYMBOL        ReadMsg
  X:0BB6H         SYMBOL        ReadMsg
  -------         ENDDO         
BL51 BANKED LINKER/LOCATER V6.22                                                      04/28/2015  17:26:03  PAGE 100


  -------         DO            
  X:0BB6H         SYMBOL        WriteMsg
  X:0BB6H         SYMBOL        PotentiometerMsg
  X:0BB6H         SYMBOL        WriteMsg
  X:0BB6H         SYMBOL        ReadMsg
  X:0BB6H         SYMBOL        ReadMsg
  -------         ENDDO         
  -------         DO            
  X:0BB6H         SYMBOL        PotentiometerMsg
  X:0BB6H         SYMBOL        WriteMsg
  X:0BB6H         SYMBOL        ReadMsg
  X:0BB6H         SYMBOL        ReadMsg
  -------         ENDDO         
  -------         DO            
  X:0BB6H         SYMBOL        WriteMsg
  X:0BB6H         SYMBOL        ReadMsg
  X:0BB6H         SYMBOL        ReadMsg
  -------         ENDDO         
  -------         DO            
  X:0BB6H         SYMBOL        ReadMsg
  X:0BB6H         SYMBOL        ReadMsg
  -------         ENDDO         
  -------         DO            
  X:0BB6H         SYMBOL        ReadMsg
  -------         ENDDO         
  -------         ENDDO         
  C:00A6H         LINE#         673
  C:00B1H         LINE#         674
  C:00B1H         LINE#         677
  C:00C5H         LINE#         678
  C:00DFH         LINE#         679
  C:00F9H         LINE#         680
  C:0113H         LINE#         683
  C:011CH         LINE#         684
  C:011FH         LINE#         686
  C:01B3H         LINE#         687
  C:01B3H         LINE#         688
  C:01B3H         LINE#         689
  C:01BDH         LINE#         690
  C:01C7H         LINE#         692
  C:01D1H         LINE#         693
  C:01D2H         LINE#         724
  C:01D2H         LINE#         725
  C:01D2H         LINE#         726
  C:01F1H         LINE#         727
  C:0230H         LINE#         729
  C:0249H         LINE#         730
  C:0262H         LINE#         731
  C:027BH         LINE#         732
  C:0294H         LINE#         733
  C:02ADH         LINE#         735
  C:039AH         LINE#         737
  C:03A4H         LINE#         738
  C:03AEH         LINE#         740
  C:03B8H         LINE#         742
  C:03B9H         LINE#         743
  C:03B9H         LINE#         745
BL51 BANKED LINKER/LOCATER V6.22                                                      04/28/2015  17:26:03  PAGE 101


  C:03B9H         LINE#         746
  C:03C3H         LINE#         747
  C:03CDH         LINE#         749
  C:03D7H         LINE#         750
  C:03D8H         LINE#         752
  C:03D8H         LINE#         753
  C:03E2H         LINE#         754
  C:03ECH         LINE#         756
  C:03F6H         LINE#         757
  C:03F7H         LINE#         759
  C:03F7H         LINE#         760
  C:03F7H         LINE#         761
  C:0416H         LINE#         762
  C:0455H         LINE#         764
  C:046AH         LINE#         766
  C:0474H         LINE#         767
  C:047EH         LINE#         769
  C:0488H         LINE#         770
  C:0489H         LINE#         771
  C:0489H         LINE#         773
  C:0489H         LINE#         774
  C:0493H         LINE#         775
  C:049DH         LINE#         777
  C:04A7H         LINE#         778
  C:04A8H         LINE#         780
  C:04A8H         LINE#         781
  C:04B2H         LINE#         782
  C:04BCH         LINE#         784
  C:04C6H         LINE#         785
  C:04C7H         LINE#         787
  C:04C7H         LINE#         788
  C:04C7H         LINE#         789
  C:04E6H         LINE#         790
  C:0525H         LINE#         791
  C:0536H         LINE#         792
  C:0540H         LINE#         793
  C:054AH         LINE#         795
  C:0554H         LINE#         796
  C:0555H         LINE#         797
  C:0555H         LINE#         799
  C:0555H         LINE#         800
  C:055FH         LINE#         801
  C:0569H         LINE#         803
  C:0573H         LINE#         804
  C:0574H         LINE#         806
  C:0574H         LINE#         807
  C:057EH         LINE#         808
  C:0588H         LINE#         810
  C:0592H         LINE#         811
  C:0593H         LINE#         813
  C:0593H         LINE#         814
  C:059DH         LINE#         815
  C:05A7H         LINE#         817
  C:05B1H         LINE#         818
  C:05B2H         LINE#         820
  C:05B2H         LINE#         821
  C:05B2H         LINE#         822
BL51 BANKED LINKER/LOCATER V6.22                                                      04/28/2015  17:26:03  PAGE 102


  C:05D1H         LINE#         823
  C:05DBH         LINE#         824
  C:05E5H         LINE#         825
  C:05F8H         LINE#         827
  C:0602H         LINE#         828
  C:0603H         LINE#         829
  C:0603H         LINE#         830
  C:0603H         LINE#         831
  C:0603H         LINE#         832
  C:0622H         LINE#         833
  C:062CH         LINE#         834
  C:0636H         LINE#         835
  C:064FH         LINE#         836
  C:0658H         LINE#         838
  C:0662H         LINE#         839
  C:0663H         LINE#         840
  C:0663H         LINE#         841
  C:0663H         LINE#         842
  C:066DH         LINE#         843
  C:0677H         LINE#         845
  C:0681H         LINE#         846
  C:0682H         LINE#         848
  C:0682H         LINE#         849
  C:0682H         LINE#         850
  C:06A1H         LINE#         851
  C:06ABH         LINE#         852
  C:06B5H         LINE#         853
  C:06C6H         LINE#         854
  C:06DFH         LINE#         855
  C:0720H         LINE#         857
  C:072AH         LINE#         858
  C:072BH         LINE#         859
  C:072BH         LINE#         861
  C:072BH         LINE#         862
  C:072BH         LINE#         865
  C:0731H         LINE#         866
  C:0737H         LINE#         867
  C:073CH         LINE#         871
  C:0766H         LINE#         880
  C:076DH         LINE#         884
  C:0770H         LINE#         886
  C:0771H         LINE#         887
  C:0771H         LINE#         889
  C:0771H         LINE#         890
  C:0771H         LINE#         891
  C:0790H         LINE#         892
  C:079AH         LINE#         893
  C:07A4H         LINE#         894
  C:07B7H         LINE#         895
  C:07CBH         LINE#         896
  C:07E0H         LINE#         898
  C:0815H         LINE#         899
  C:084AH         LINE#         900
  C:087FH         LINE#         901
  C:08B4H         LINE#         903
  C:08BEH         LINE#         904
  C:08BFH         LINE#         905
BL51 BANKED LINKER/LOCATER V6.22                                                      04/28/2015  17:26:03  PAGE 103


  C:08BFH         LINE#         907
  C:08BFH         LINE#         908
  C:08C9H         LINE#         909
  C:08D3H         LINE#         911
  C:08DDH         LINE#         912
  C:08DEH         LINE#         914
  C:08DEH         LINE#         915
  C:08DEH         LINE#         916
  C:08FDH         LINE#         917
  C:0907H         LINE#         918
  C:0911H         LINE#         920
  C:092AH         LINE#         921
  C:0933H         LINE#         923
  C:094EH         LINE#         924
  C:0957H         LINE#         926
  C:097CH         LINE#         927
  C:0985H         LINE#         929
  C:09AAH         LINE#         930
  C:09B3H         LINE#         932
  C:09D8H         LINE#         933
  C:09E1H         LINE#         935
  C:09EBH         LINE#         936
  C:09ECH         LINE#         937
  C:09ECH         LINE#         939
  C:09ECH         LINE#         940
  C:09F6H         LINE#         941
  C:0A00H         LINE#         943
  C:0A0AH         LINE#         944
  C:0A0BH         LINE#         946
  C:0A0BH         LINE#         947
  C:0A15H         LINE#         948
  C:0A1FH         LINE#         950
  C:0A29H         LINE#         952
  C:0A2AH         LINE#         954
  C:0A2AH         LINE#         955
  C:0A34H         LINE#         956
  C:0A3EH         LINE#         958
  C:0A48H         LINE#         959
  C:0A49H         LINE#         961
  C:0A49H         LINE#         962
  C:0A53H         LINE#         963
  C:0A5DH         LINE#         965
  C:0A67H         LINE#         966
  C:0A68H         LINE#         968
  C:0A68H         LINE#         969
  C:0A72H         LINE#         970
  C:0A7CH         LINE#         972
  C:0A86H         LINE#         973
  C:0A87H         LINE#         975
  C:0A87H         LINE#         976
  C:0A91H         LINE#         977
  C:0A9BH         LINE#         979
  C:0AA5H         LINE#         980
  C:0AA6H         LINE#         982
  C:0AA6H         LINE#         983
  C:0AA6H         LINE#         984
  C:0AC5H         LINE#         985
BL51 BANKED LINKER/LOCATER V6.22                                                      04/28/2015  17:26:03  PAGE 104


  C:0ADEH         LINE#         986
  C:0AEFH         LINE#         988
  C:0AF9H         LINE#         989
  C:0B03H         LINE#         991
  C:0B0DH         LINE#         993
  C:0B0EH         LINE#         994
  C:0B0EH         LINE#         996
  C:0B0EH         LINE#         997
  C:0B0EH         LINE#         998
  C:0B2DH         LINE#         999
  C:0B3EH         LINE#         1001
  C:0B48H         LINE#         1002
  C:0B52H         LINE#         1004
  C:0B5CH         LINE#         1006
  C:0B5DH         LINE#         1007
  C:0B5DH         LINE#         1009
  C:0B5DH         LINE#         1010
  C:0B67H         LINE#         1011
  C:0B71H         LINE#         1013
  C:0B7BH         LINE#         1014
  C:0B7CH         LINE#         1016
  C:0B7CH         LINE#         1017
  C:0B86H         LINE#         1018
  C:0B90H         LINE#         1020
  C:0B9AH         LINE#         1021
  C:0B9BH         LINE#         1023
  C:0B9BH         LINE#         1024
  C:0B9BH         LINE#         1025
  C:0BBAH         LINE#         1026
  C:0BCBH         LINE#         1027
  C:0BE4H         LINE#         1028
  C:0BFDH         LINE#         1029
  C:0C16H         LINE#         1030
  C:0C9BH         LINE#         1033
  C:0CA5H         LINE#         1034
  C:0CA6H         LINE#         1035
  C:0CA6H         LINE#         1037
  C:0CA6H         LINE#         1038
  C:0CA6H         LINE#         1039
  C:0CC5H         LINE#         1040
  C:0CCFH         LINE#         1041
  C:0CD9H         LINE#         1042
  C:0D06H         LINE#         1044
  C:0D10H         LINE#         1045
  C:0D11H         LINE#         1046
  C:0D11H         LINE#         1048
  C:0D11H         LINE#         1049
  C:0D11H         LINE#         1050
  C:0D1BH         LINE#         1051
  C:0D25H         LINE#         1053
  C:0D2FH         LINE#         1054
  C:0D30H         LINE#         1055
  C:0D30H         LINE#         1057
  C:0D30H         LINE#         1058
  C:0D30H         LINE#         1059
  C:0D3AH         LINE#         1060
  C:0D44H         LINE#         1062
BL51 BANKED LINKER/LOCATER V6.22                                                      04/28/2015  17:26:03  PAGE 105


  C:0D4EH         LINE#         1063
  C:0D4FH         LINE#         1064
  C:0D4FH         LINE#         1066
  C:0D4FH         LINE#         1067
  C:0D4FH         LINE#         1068
  C:0D6EH         LINE#         1070
  C:0D7AH         LINE#         1071
  C:0D7AH         LINE#         1072
  C:0D93H         LINE#         1073
  C:0DACH         LINE#         1074
  C:0DC5H         LINE#         1075
  C:0DDEH         LINE#         1076
  C:0DF7H         LINE#         1077
  C:0E10H         LINE#         1078
  C:0E29H         LINE#         1079
  C:0E42H         LINE#         1080
  C:0E5BH         LINE#         1081
  C:0E74H         LINE#         1082
  C:0E8DH         LINE#         1083
  C:0EA6H         LINE#         1085
  C:0EE4H         LINE#         1087
  C:0EECH         LINE#         1088
  C:0EEDH         LINE#         1090
  C:0EEDH         LINE#         1091
  C:0EF7H         LINE#         1092
  C:0F01H         LINE#         1093
  C:0F0BH         LINE#         1094
  C:0F0BH         LINE#         1095
  C:0F0CH         LINE#         1096
  C:0F0CH         LINE#         1098
  C:0F0CH         LINE#         1099
  C:0F0CH         LINE#         1100
  C:0F2BH         LINE#         1102
  C:0F35H         LINE#         1103
  C:0F3FH         LINE#         1104
  C:0F52H         LINE#         1106
  C:0F5CH         LINE#         1107
  C:0F5DH         LINE#         1108
  C:0F5DH         LINE#         1110
  C:0F5DH         LINE#         1111
  C:0F5DH         LINE#         1112
  C:0F7CH         LINE#         1113
  C:0F9CH         LINE#         1114
  C:0FA6H         LINE#         1115
  C:0FB0H         LINE#         1117
  C:0FBAH         LINE#         1118
  C:0FBBH         LINE#         1119
  C:0FBBH         LINE#         1121
  C:0FBBH         LINE#         1122
  C:0FBBH         LINE#         1123
  C:0FC5H         LINE#         1124
  C:0FCFH         LINE#         1126
  C:0FD9H         LINE#         1127
  C:0FDAH         LINE#         1128
  C:0FDAH         LINE#         1130
  C:0FDAH         LINE#         1131
  C:0FDAH         LINE#         1132
BL51 BANKED LINKER/LOCATER V6.22                                                      04/28/2015  17:26:03  PAGE 106


  C:0FF9H         LINE#         1134
  C:1003H         LINE#         1135
  C:100DH         LINE#         1138
  C:101EH         LINE#         1139
  C:1025H         LINE#         1141
  C:102AH         LINE#         1143
  C:1034H         LINE#         1144
  C:1035H         LINE#         1145
  C:1035H         LINE#         1147
  C:1035H         LINE#         1148
  C:1035H         LINE#         1149
  C:1054H         LINE#         1151
  C:1067H         LINE#         1152
  C:1071H         LINE#         1153
  C:107BH         LINE#         1155
  C:1085H         LINE#         1156
  C:1086H         LINE#         1157
  C:1086H         LINE#         1159
  C:1086H         LINE#         1160
  C:1086H         LINE#         1161
  C:10A5H         LINE#         1162
  C:10B8H         LINE#         1163
  C:10C2H         LINE#         1164
  C:10CCH         LINE#         1165
  C:10D6H         LINE#         1166
  C:10D7H         LINE#         1167
  C:10D7H         LINE#         1169
  C:10D7H         LINE#         1170
  C:10D7H         LINE#         1171
  C:10F6H         LINE#         1172
  C:1100H         LINE#         1173
  C:110AH         LINE#         1174
  C:111DH         LINE#         1175
  C:1137H         LINE#         1176
  C:1140H         LINE#         1178
  C:114AH         LINE#         1179
  C:114BH         LINE#         1180
  C:114BH         LINE#         1182
  C:114BH         LINE#         1183
  C:114BH         LINE#         1184
  C:116AH         LINE#         1185
  C:1174H         LINE#         1186
  C:117EH         LINE#         1187
  C:1191H         LINE#         1188
  C:11A5H         LINE#         1190
  C:11AFH         LINE#         1191
  C:11B0H         LINE#         1192
  C:11B0H         LINE#         1194
  C:11B0H         LINE#         1195
  C:11B0H         LINE#         1196
  C:11CFH         LINE#         1197
  C:11D9H         LINE#         1198
  C:11E3H         LINE#         1199
  C:11F6H         LINE#         1200
  C:1210H         LINE#         1201
  C:1219H         LINE#         1202
  C:122FH         LINE#         1204
BL51 BANKED LINKER/LOCATER V6.22                                                      04/28/2015  17:26:03  PAGE 107


  C:1239H         LINE#         1205
  C:123AH         LINE#         1206
  C:123AH         LINE#         1208
  C:123AH         LINE#         1209
  C:123AH         LINE#         1210
  C:1259H         LINE#         1211
  C:1263H         LINE#         1212
  C:126DH         LINE#         1213
  C:1280H         LINE#         1214
  C:129AH         LINE#         1215
  C:12A3H         LINE#         1217
  C:12ADH         LINE#         1218
  C:12AEH         LINE#         1219
  C:12AEH         LINE#         1221
  C:12AEH         LINE#         1222
  C:12AEH         LINE#         1223
  C:12CDH         LINE#         1224
  C:12E7H         LINE#         1225
  C:1301H         LINE#         1226
  C:1324H         LINE#         1227
  C:1341H         LINE#         1228
  C:1353H         LINE#         1229
  C:1353H         LINE#         1230
  C:1353H         LINE#         1232
  C:1353H         LINE#         1233
  C:1353H         LINE#         1234
  C:1353H         LINE#         1235
  -------         ENDPROC       _MESSAGEDECODEOHDB
  -------         PROC          _ISHEADTEMPOKTASK
  X:0C16H         SYMBOL        Arg
  -------         DO            
  X:0C17H         SYMBOL        Msg
  -------         ENDDO         
  C:7832H         LINE#         1246
  C:7837H         LINE#         1247
  C:7837H         LINE#         1250
  C:783DH         LINE#         1251
  C:7879H         LINE#         1253
  C:78A3H         LINE#         1255
  C:78A9H         LINE#         1257
  C:78B1H         LINE#         1258
  -------         ENDPROC       _ISHEADTEMPOKTASK
  -------         PROC          _OHDBGETA2DREADINGSTASK
  X:09C4H         SYMBOL        Arg
  -------         DO            
  X:09C5H         SYMBOL        Msg
  -------         ENDDO         
  C:7730H         LINE#         1270
  C:7735H         LINE#         1271
  C:7735H         LINE#         1274
  C:773BH         LINE#         1275
  C:774AH         LINE#         1276
  C:7779H         LINE#         1278
  C:77A3H         LINE#         1280
  C:77A9H         LINE#         1282
  C:77B1H         LINE#         1284
  -------         ENDPROC       _OHDBGETA2DREADINGSTASK
BL51 BANKED LINKER/LOCATER V6.22                                                      04/28/2015  17:26:03  PAGE 108


  -------         PROC          _XILINXWRITETASK
  X:0D3BH         SYMBOL        Arg
  -------         DO            
  -------         DO            
  X:0D3CH         SYMBOL        Msg
  -------         ENDDO         
  -------         ENDDO         
  C:7410H         LINE#         1293
  C:7415H         LINE#         1294
  C:7415H         LINE#         1301
  C:742BH         LINE#         1302
  C:742BH         LINE#         1303
  C:742BH         LINE#         1304
  C:7430H         LINE#         1305
  C:7431H         LINE#         1313
  C:7431H         LINE#         1314
  C:7439H         LINE#         1315
  C:743FH         LINE#         1317
  C:7444H         LINE#         1318
  C:7445H         LINE#         1320
  C:7445H         LINE#         1321
  C:7445H         LINE#         1324
  C:744BH         LINE#         1325
  C:7451H         LINE#         1326
  C:7456H         LINE#         1327
  C:7480H         LINE#         1329
  C:7480H         LINE#         1330
  C:7485H         LINE#         1331
  C:748AH         LINE#         1332
  C:748BH         LINE#         1334
  C:7490H         LINE#         1335
  C:7491H         LINE#         1336
  C:7491H         LINE#         1338
  C:7491H         LINE#         1339
  C:7496H         LINE#         1340
  C:7496H         LINE#         1342
  C:7496H         LINE#         1346
  -------         ENDPROC       _XILINXWRITETASK
  -------         PROC          _POTENTIOMETERWRITETASK
  X:0D3FH         SYMBOL        Arg
  -------         DO            
  -------         DO            
  X:0D40H         SYMBOL        Msg
  -------         ENDDO         
  -------         ENDDO         
  C:69C1H         LINE#         1355
  C:69C6H         LINE#         1356
  C:69C6H         LINE#         1363
  C:69DCH         LINE#         1364
  C:69DCH         LINE#         1366
  C:69DCH         LINE#         1367
  C:69ECH         LINE#         1368
  C:69F2H         LINE#         1370
  C:69F7H         LINE#         1371
  C:69F8H         LINE#         1373
  C:69F8H         LINE#         1374
  C:6A05H         LINE#         1375
BL51 BANKED LINKER/LOCATER V6.22                                                      04/28/2015  17:26:03  PAGE 109


  C:6A0BH         LINE#         1377
  C:6A10H         LINE#         1378
  C:6A11H         LINE#         1380
  C:6A11H         LINE#         1381
  C:6A11H         LINE#         1384
  C:6A17H         LINE#         1385
  C:6A1DH         LINE#         1386
  C:6A22H         LINE#         1387
  C:6A4CH         LINE#         1389
  C:6A4CH         LINE#         1390
  C:6A51H         LINE#         1391
  C:6A56H         LINE#         1392
  C:6A57H         LINE#         1394
  C:6A5CH         LINE#         1395
  C:6A5DH         LINE#         1396
  C:6A5DH         LINE#         1398
  C:6A5DH         LINE#         1399
  C:6A62H         LINE#         1400
  C:6A62H         LINE#         1402
  C:6A62H         LINE#         1404
  -------         ENDPROC       _POTENTIOMETERWRITETASK
  -------         PROC          _E2PROMWRITETASK
  X:0D43H         SYMBOL        Arg
  -------         DO            
  -------         DO            
  X:0D44H         SYMBOL        Msg
  -------         ENDDO         
  -------         ENDDO         
  C:5A84H         LINE#         1414
  C:5A89H         LINE#         1415
  C:5A89H         LINE#         1424
  C:5AA5H         LINE#         1425
  C:5AA5H         LINE#         1426
  C:5AA5H         LINE#         1427
  C:5AB0H         LINE#         1428
  C:5AB6H         LINE#         1430
  C:5ABBH         LINE#         1431
  C:5ABCH         LINE#         1433
  C:5ABCH         LINE#         1434
  C:5AC9H         LINE#         1435
  C:5ACFH         LINE#         1437
  C:5AD4H         LINE#         1438
  C:5AD5H         LINE#         1440
  C:5AD5H         LINE#         1441
  C:5AEDH         LINE#         1443
  C:5AF3H         LINE#         1445
  C:5AF8H         LINE#         1446
  C:5AF9H         LINE#         1448
  C:5AF9H         LINE#         1449
  C:5B06H         LINE#         1450
  C:5B0CH         LINE#         1452
  C:5B11H         LINE#         1453
  C:5B12H         LINE#         1455
  C:5B12H         LINE#         1456
  C:5B12H         LINE#         1459
  C:5B18H         LINE#         1460
  C:5B1EH         LINE#         1461
BL51 BANKED LINKER/LOCATER V6.22                                                      04/28/2015  17:26:03  PAGE 110


  C:5B23H         LINE#         1462
  C:5B4DH         LINE#         1464
  C:5B4DH         LINE#         1465
  C:5B52H         LINE#         1466
  C:5B57H         LINE#         1467
  C:5B58H         LINE#         1469
  C:5B5DH         LINE#         1470
  C:5B5EH         LINE#         1471
  C:5B5EH         LINE#         1473
  C:5B5EH         LINE#         1474
  C:5B63H         LINE#         1475
  C:5B63H         LINE#         1477
  C:5B63H         LINE#         1479
  -------         ENDPROC       _E2PROMWRITETASK
  -------         PROC          _E2PROMREADTASK
  X:0CC6H         SYMBOL        Arg
  -------         DO            
  X:054CH         SYMBOL        Data
  -------         DO            
  X:0CC7H         SYMBOL        Msg
  -------         ENDDO         
  -------         ENDDO         
  C:6141H         LINE#         1489
  C:6146H         LINE#         1490
  C:6146H         LINE#         1499
  C:615CH         LINE#         1500
  C:615CH         LINE#         1501
  C:615CH         LINE#         1502
  C:616FH         LINE#         1503
  C:6175H         LINE#         1505
  C:617AH         LINE#         1506
  C:617BH         LINE#         1508
  C:617BH         LINE#         1509
  C:6194H         LINE#         1510
  C:619AH         LINE#         1512
  C:619FH         LINE#         1513
  C:61A0H         LINE#         1515
  C:61A0H         LINE#         1516
  C:61A0H         LINE#         1519
  C:61A6H         LINE#         1520
  C:61B6H         LINE#         1521
  C:61BFH         LINE#         1522
  C:61C9H         LINE#         1523
  C:61F3H         LINE#         1525
  C:61F3H         LINE#         1526
  C:61F8H         LINE#         1527
  C:61FDH         LINE#         1528
  C:61FEH         LINE#         1530
  C:6203H         LINE#         1531
  C:6204H         LINE#         1532
  C:6204H         LINE#         1534
  C:6204H         LINE#         1535
  C:6209H         LINE#         1536
  C:6209H         LINE#         1538
  C:6209H         LINE#         1541
  -------         ENDPROC       _E2PROMREADTASK
  -------         PROC          _XILINXREADTASK
BL51 BANKED LINKER/LOCATER V6.22                                                      04/28/2015  17:26:03  PAGE 111


  X:0CCBH         SYMBOL        Arg
  -------         DO            
  -------         DO            
  X:0CCCH         SYMBOL        Msg
  -------         ENDDO         
  -------         ENDDO         
  C:4CA6H         LINE#         1551
  C:4CABH         LINE#         1552
  C:4CABH         LINE#         1558
  C:4CC1H         LINE#         1559
  C:4CC1H         LINE#         1560
  C:4CC1H         LINE#         1561
  C:4CC6H         LINE#         1562
  C:4CC7H         LINE#         1569
  C:4CC7H         LINE#         1570
  C:4CE7H         LINE#         1571
  C:4CEDH         LINE#         1573
  C:4CF2H         LINE#         1574
  C:4CF3H         LINE#         1576
  C:4CF3H         LINE#         1577
  C:4CF3H         LINE#         1580
  C:4CF9H         LINE#         1581
  C:4D13H         LINE#         1582
  C:4D33H         LINE#         1583
  C:4D3CH         LINE#         1584
  C:4D86H         LINE#         1586
  C:4D86H         LINE#         1587
  C:4DA3H         LINE#         1588
  C:4DB1H         LINE#         1589
  C:4DB1H         LINE#         1590
  C:4DB6H         LINE#         1591
  C:4DBBH         LINE#         1592
  C:4DBCH         LINE#         1594
  C:4DC1H         LINE#         1595
  C:4DC2H         LINE#         1597
  C:4DC7H         LINE#         1598
  C:4DC8H         LINE#         1599
  C:4DC8H         LINE#         1601
  C:4DC8H         LINE#         1602
  C:4DCDH         LINE#         1603
  C:4DCDH         LINE#         1605
  C:4DCDH         LINE#         1608
  -------         ENDPROC       _XILINXREADTASK
  -------         PROC          _SETROLLERONOFFTASK
  X:0D47H         SYMBOL        Arg
  -------         DO            
  -------         DO            
  X:0D48H         SYMBOL        Msg
  -------         ENDDO         
  -------         ENDDO         
  C:5F9CH         LINE#         1618
  C:5FA1H         LINE#         1619
  C:5FA1H         LINE#         1628
  C:5FBDH         LINE#         1629
  C:5FBDH         LINE#         1630
  C:5FBDH         LINE#         1632
  C:5FC5H         LINE#         1633
BL51 BANKED LINKER/LOCATER V6.22                                                      04/28/2015  17:26:03  PAGE 112


  C:5FCBH         LINE#         1635
  C:5FCBH         LINE#         1636
  C:5FD6H         LINE#         1637
  C:5FDCH         LINE#         1639
  C:5FE1H         LINE#         1640
  C:5FE1H         LINE#         1641
  C:5FE2H         LINE#         1643
  C:5FE2H         LINE#         1644
  C:5FE8H         LINE#         1645
  C:5FEEH         LINE#         1647
  C:5FF3H         LINE#         1648
  C:5FF4H         LINE#         1650
  C:5FF4H         LINE#         1651
  C:5FFFH         LINE#         1652
  C:6005H         LINE#         1654
  C:600AH         LINE#         1655
  C:600BH         LINE#         1657
  C:600BH         LINE#         1658
  C:6011H         LINE#         1659
  C:6017H         LINE#         1661
  C:601CH         LINE#         1662
  C:601DH         LINE#         1664
  C:601DH         LINE#         1665
  C:601DH         LINE#         1668
  C:6023H         LINE#         1669
  C:6029H         LINE#         1670
  C:602EH         LINE#         1671
  C:6058H         LINE#         1673
  C:6058H         LINE#         1674
  C:605DH         LINE#         1675
  C:6062H         LINE#         1676
  C:6063H         LINE#         1678
  C:6068H         LINE#         1679
  C:6069H         LINE#         1680
  C:6069H         LINE#         1682
  C:6069H         LINE#         1683
  C:606EH         LINE#         1684
  C:606EH         LINE#         1686
  C:606EH         LINE#         1689
  -------         ENDPROC       _SETROLLERONOFFTASK
  -------         PROC          _SETROLLERSPEEDTASK
  X:0D4BH         SYMBOL        Arg
  -------         DO            
  -------         DO            
  X:0D4CH         SYMBOL        Msg
  -------         ENDDO         
  -------         ENDDO         
  C:6D6AH         LINE#         1699
  C:6D6FH         LINE#         1700
  C:6D6FH         LINE#         1708
  C:6D85H         LINE#         1709
  C:6D85H         LINE#         1711
  C:6D85H         LINE#         1712
  C:6D93H         LINE#         1713
  C:6D99H         LINE#         1715
  C:6D9EH         LINE#         1716
  C:6D9FH         LINE#         1718
BL51 BANKED LINKER/LOCATER V6.22                                                      04/28/2015  17:26:03  PAGE 113


  C:6D9FH         LINE#         1719
  C:6DA5H         LINE#         1720
  C:6DABH         LINE#         1722
  C:6DB0H         LINE#         1723
  C:6DB1H         LINE#         1725
  C:6DB1H         LINE#         1726
  C:6DB1H         LINE#         1729
  C:6DB7H         LINE#         1730
  C:6DBDH         LINE#         1731
  C:6DC2H         LINE#         1732
  C:6DECH         LINE#         1734
  C:6DECH         LINE#         1735
  C:6DF1H         LINE#         1736
  C:6DF6H         LINE#         1737
  C:6DF7H         LINE#         1739
  C:6DFCH         LINE#         1740
  C:6DFDH         LINE#         1741
  C:6DFDH         LINE#         1743
  C:6DFDH         LINE#         1744
  C:6E02H         LINE#         1745
  C:6E02H         LINE#         1747
  C:6E02H         LINE#         1751
  -------         ENDPROC       _SETROLLERSPEEDTASK
  -------         PROC          _GETROLLERSTATUSTASK
  X:0C1DH         SYMBOL        Arg
  -------         DO            
  X:0C1EH         SYMBOL        Data
  -------         DO            
  X:0C20H         SYMBOL        Msg
  -------         ENDDO         
  -------         ENDDO         
  C:6391H         LINE#         1760
  C:6396H         LINE#         1761
  C:6396H         LINE#         1770
  C:63ACH         LINE#         1771
  C:63ACH         LINE#         1772
  C:63ACH         LINE#         1773
  C:63B2H         LINE#         1774
  C:63B8H         LINE#         1776
  C:63BDH         LINE#         1777
  C:63BEH         LINE#         1779
  C:63BEH         LINE#         1780
  C:63CAH         LINE#         1781
  C:63CAH         LINE#         1782
  C:63DAH         LINE#         1783
  C:63DFH         LINE#         1784
  C:63E0H         LINE#         1786
  C:63E5H         LINE#         1787
  C:63E6H         LINE#         1789
  C:63E6H         LINE#         1790
  C:63E6H         LINE#         1793
  C:63ECH         LINE#         1794
  C:63F4H         LINE#         1795
  C:6404H         LINE#         1796
  C:640DH         LINE#         1797
  C:6437H         LINE#         1799
  C:6437H         LINE#         1800
BL51 BANKED LINKER/LOCATER V6.22                                                      04/28/2015  17:26:03  PAGE 114


  C:643CH         LINE#         1801
  C:6441H         LINE#         1802
  C:6442H         LINE#         1804
  C:6447H         LINE#         1805
  C:6448H         LINE#         1806
  C:6448H         LINE#         1808
  C:6448H         LINE#         1809
  C:644DH         LINE#         1810
  C:644DH         LINE#         1812
  C:644DH         LINE#         1814
  -------         ENDPROC       _GETROLLERSTATUSTASK
  -------         PROC          _SETPRINTINGHEADSPARAMSTASK
  X:0CD0H         SYMBOL        Arg
  -------         DO            
  X:0CD1H         SYMBOL        Status
  -------         DO            
  X:0CD2H         SYMBOL        Msg
  -------         ENDDO         
  -------         ENDDO         
  C:32BFH         LINE#         1823
  C:32C4H         LINE#         1824
  C:32C4H         LINE#         1846
  C:32FEH         LINE#         1847
  C:32FEH         LINE#         1848
  C:32FEH         LINE#         1849
  C:32FEH         LINE#         1850
  C:330FH         LINE#         1851
  C:3315H         LINE#         1853
  C:331AH         LINE#         1854
  C:331AH         LINE#         1855
  C:331BH         LINE#         1857
  C:331BH         LINE#         1858
  C:331BH         LINE#         1859
  C:3323H         LINE#         1861
  C:332DH         LINE#         1862
  C:332DH         LINE#         1863
  C:3335H         LINE#         1864
  C:333BH         LINE#         1866
  C:3340H         LINE#         1867
  C:3341H         LINE#         1869
  C:3346H         LINE#         1870
  C:3346H         LINE#         1871
  C:3347H         LINE#         1873
  C:3347H         LINE#         1874
  C:3347H         LINE#         1875
  C:3358H         LINE#         1876
  C:335EH         LINE#         1878
  C:3363H         LINE#         1879
  C:3363H         LINE#         1880
  C:3364H         LINE#         1882
  C:3364H         LINE#         1883
  C:3364H         LINE#         1884
  C:336CH         LINE#         1886
  C:3376H         LINE#         1887
  C:3376H         LINE#         1888
  C:337EH         LINE#         1889
  C:3384H         LINE#         1891
BL51 BANKED LINKER/LOCATER V6.22                                                      04/28/2015  17:26:03  PAGE 115


  C:3389H         LINE#         1892
  C:338AH         LINE#         1894
  C:338FH         LINE#         1895
  C:338FH         LINE#         1896
  C:3390H         LINE#         1898
  C:3390H         LINE#         1899
  C:3390H         LINE#         1900
  C:33A1H         LINE#         1901
  C:33A7H         LINE#         1903
  C:33ACH         LINE#         1904
  C:33ACH         LINE#         1905
  C:33ADH         LINE#         1907
  C:33ADH         LINE#         1908
  C:33ADH         LINE#         1909
  C:33B5H         LINE#         1911
  C:33BFH         LINE#         1912
  C:33BFH         LINE#         1913
  C:33C7H         LINE#         1914
  C:33CDH         LINE#         1916
  C:33D2H         LINE#         1917
  C:33D3H         LINE#         1919
  C:33D8H         LINE#         1920
  C:33D8H         LINE#         1921
  C:33D9H         LINE#         1923
  C:33D9H         LINE#         1924
  C:33D9H         LINE#         1925
  C:33FFH         LINE#         1926
  C:3405H         LINE#         1928
  C:340AH         LINE#         1929
  C:340AH         LINE#         1930
  C:340BH         LINE#         1932
  C:340BH         LINE#         1933
  C:340BH         LINE#         1934
  C:3413H         LINE#         1936
  C:341DH         LINE#         1937
  C:341DH         LINE#         1938
  C:3425H         LINE#         1939
  C:3425H         LINE#         1940
  C:342EH         LINE#         1942
  C:3436H         LINE#         1943
  C:343CH         LINE#         1945
  C:3441H         LINE#         1946
  C:3442H         LINE#         1948
  C:3447H         LINE#         1949
  C:3448H         LINE#         1951
  C:344DH         LINE#         1952
  C:344DH         LINE#         1953
  C:344EH         LINE#         1955
  C:344EH         LINE#         1956
  C:344EH         LINE#         1957
  C:3474H         LINE#         1958
  C:347AH         LINE#         1960
  C:347FH         LINE#         1961
  C:347FH         LINE#         1962
  C:3480H         LINE#         1964
  C:3480H         LINE#         1965
  C:3480H         LINE#         1966
BL51 BANKED LINKER/LOCATER V6.22                                                      04/28/2015  17:26:03  PAGE 116


  C:3488H         LINE#         1968
  C:3492H         LINE#         1969
  C:3492H         LINE#         1970
  C:349AH         LINE#         1971
  C:349AH         LINE#         1972
  C:34A3H         LINE#         1974
  C:34ABH         LINE#         1975
  C:34B1H         LINE#         1977
  C:34B6H         LINE#         1978
  C:34B7H         LINE#         1980
  C:34BCH         LINE#         1981
  C:34BDH         LINE#         1983
  C:34C2H         LINE#         1984
  C:34C2H         LINE#         1985
  C:34C3H         LINE#         1987
  C:34C3H         LINE#         1988
  C:34C3H         LINE#         1989
  C:34E9H         LINE#         1990
  C:34EFH         LINE#         1992
  C:34F4H         LINE#         1993
  C:34F4H         LINE#         1994
  C:34F5H         LINE#         1996
  C:34F5H         LINE#         1997
  C:34F5H         LINE#         1998
  C:34FDH         LINE#         2000
  C:3507H         LINE#         2001
  C:3507H         LINE#         2002
  C:350FH         LINE#         2003
  C:350FH         LINE#         2004
  C:3518H         LINE#         2006
  C:3520H         LINE#         2007
  C:3526H         LINE#         2009
  C:352BH         LINE#         2010
  C:352CH         LINE#         2012
  C:3531H         LINE#         2013
  C:3532H         LINE#         2015
  C:3537H         LINE#         2016
  C:3537H         LINE#         2017
  C:3538H         LINE#         2019
  C:3538H         LINE#         2020
  C:3538H         LINE#         2021
  C:355EH         LINE#         2022
  C:3564H         LINE#         2024
  C:3569H         LINE#         2025
  C:3569H         LINE#         2026
  C:356AH         LINE#         2028
  C:356AH         LINE#         2029
  C:356AH         LINE#         2030
  C:3572H         LINE#         2032
  C:357CH         LINE#         2033
  C:357CH         LINE#         2034
  C:3584H         LINE#         2035
  C:3584H         LINE#         2036
  C:358DH         LINE#         2038
  C:3595H         LINE#         2039
  C:359BH         LINE#         2041
  C:35A0H         LINE#         2042
BL51 BANKED LINKER/LOCATER V6.22                                                      04/28/2015  17:26:03  PAGE 117


  C:35A1H         LINE#         2044
  C:35A6H         LINE#         2045
  C:35A7H         LINE#         2047
  C:35ACH         LINE#         2048
  C:35ACH         LINE#         2049
  C:35ADH         LINE#         2052
  C:35ADH         LINE#         2053
  C:35ADH         LINE#         2056
  C:35B3H         LINE#         2057
  C:35B9H         LINE#         2058
  C:35BEH         LINE#         2060
  C:35E8H         LINE#         2061
  C:35E8H         LINE#         2062
  C:35EDH         LINE#         2063
  C:35F2H         LINE#         2064
  C:35F3H         LINE#         2066
  C:35F8H         LINE#         2067
  C:35F9H         LINE#         2068
  C:35F9H         LINE#         2070
  C:35F9H         LINE#         2071
  C:35FEH         LINE#         2072
  C:35FEH         LINE#         2074
  C:35FEH         LINE#         2077
  -------         ENDPROC       _SETPRINTINGHEADSPARAMSTASK
  -------         PROC          _SETPRINTINGPASSPARAMSTASK
  X:0CD5H         SYMBOL        Arg
  -------         DO            
  X:0CD6H         SYMBOL        Status
  -------         DO            
  X:0CD7H         SYMBOL        Msg
  -------         ENDDO         
  -------         ENDDO         
  C:4001H         LINE#         2086
  C:4006H         LINE#         2087
  C:4006H         LINE#         2104
  C:4034H         LINE#         2105
  C:4034H         LINE#         2107
  C:4034H         LINE#         2108
  C:4042H         LINE#         2109
  C:4048H         LINE#         2111
  C:404DH         LINE#         2112
  C:404EH         LINE#         2114
  C:404EH         LINE#         2115
  C:4056H         LINE#         2116
  C:4060H         LINE#         2117
  C:4060H         LINE#         2118
  C:4068H         LINE#         2119
  C:406EH         LINE#         2121
  C:4073H         LINE#         2122
  C:4074H         LINE#         2124
  C:4079H         LINE#         2125
  C:407AH         LINE#         2127
  C:407AH         LINE#         2128
  C:4088H         LINE#         2129
  C:408EH         LINE#         2131
  C:4093H         LINE#         2132
  C:4094H         LINE#         2134
BL51 BANKED LINKER/LOCATER V6.22                                                      04/28/2015  17:26:03  PAGE 118


  C:4094H         LINE#         2135
  C:409CH         LINE#         2136
  C:40A6H         LINE#         2137
  C:40A6H         LINE#         2138
  C:40AEH         LINE#         2139
  C:40B4H         LINE#         2141
  C:40B9H         LINE#         2142
  C:40BAH         LINE#         2144
  C:40BFH         LINE#         2145
  C:40C0H         LINE#         2147
  C:40C0H         LINE#         2148
  C:40CEH         LINE#         2149
  C:40D4H         LINE#         2151
  C:40D9H         LINE#         2152
  C:40DAH         LINE#         2154
  C:40DAH         LINE#         2155
  C:40E2H         LINE#         2156
  C:40ECH         LINE#         2157
  C:40ECH         LINE#         2158
  C:40F4H         LINE#         2159
  C:40FAH         LINE#         2161
  C:40FFH         LINE#         2162
  C:4100H         LINE#         2164
  C:4105H         LINE#         2165
  C:4106H         LINE#         2167
  C:4106H         LINE#         2168
  C:4114H         LINE#         2169
  C:411AH         LINE#         2171
  C:411FH         LINE#         2172
  C:4120H         LINE#         2174
  C:4120H         LINE#         2175
  C:4128H         LINE#         2176
  C:4132H         LINE#         2177
  C:4132H         LINE#         2178
  C:413AH         LINE#         2179
  C:4140H         LINE#         2181
  C:4145H         LINE#         2182
  C:4146H         LINE#         2184
  C:414BH         LINE#         2185
  C:414CH         LINE#         2187
  C:414CH         LINE#         2188
  C:415AH         LINE#         2189
  C:4160H         LINE#         2191
  C:4165H         LINE#         2192
  C:4166H         LINE#         2194
  C:4166H         LINE#         2195
  C:416EH         LINE#         2196
  C:4178H         LINE#         2197
  C:4178H         LINE#         2198
  C:4180H         LINE#         2199
  C:4186H         LINE#         2201
  C:418BH         LINE#         2202
  C:418CH         LINE#         2204
  C:4191H         LINE#         2205
  C:4192H         LINE#         2207
  C:4192H         LINE#         2208
  C:4192H         LINE#         2211
BL51 BANKED LINKER/LOCATER V6.22                                                      04/28/2015  17:26:03  PAGE 119


  C:4198H         LINE#         2212
  C:419EH         LINE#         2213
  C:41A3H         LINE#         2214
  C:41CDH         LINE#         2216
  C:41CDH         LINE#         2217
  C:41D2H         LINE#         2218
  C:41D7H         LINE#         2219
  C:41D8H         LINE#         2221
  C:41DDH         LINE#         2222
  C:41DEH         LINE#         2223
  C:41DEH         LINE#         2225
  C:41DEH         LINE#         2226
  C:41E3H         LINE#         2227
  C:41E3H         LINE#         2229
  C:41E3H         LINE#         2232
  -------         ENDPROC       _SETPRINTINGPASSPARAMSTASK
  -------         PROC          _ENABLEPRINTINGCIRCUITRYTASK
  X:0CDAH         SYMBOL        Arg
  -------         DO            
  X:0CDBH         SYMBOL        Status
  -------         DO            
  X:0CDCH         SYMBOL        Msg
  -------         ENDDO         
  -------         ENDDO         
  C:551DH         LINE#         2242
  C:5522H         LINE#         2243
  C:5522H         LINE#         2254
  C:553EH         LINE#         2255
  C:553EH         LINE#         2257
  C:553EH         LINE#         2258
  C:5544H         LINE#         2259
  C:554AH         LINE#         2261
  C:554FH         LINE#         2262
  C:5550H         LINE#         2264
  C:5550H         LINE#         2265
  C:5558H         LINE#         2266
  C:5562H         LINE#         2267
  C:5562H         LINE#         2268
  C:556AH         LINE#         2269
  C:5570H         LINE#         2271
  C:5575H         LINE#         2272
  C:5576H         LINE#         2274
  C:557BH         LINE#         2275
  C:557CH         LINE#         2277
  C:557CH         LINE#         2278
  C:5582H         LINE#         2279
  C:5588H         LINE#         2281
  C:558DH         LINE#         2282
  C:558EH         LINE#         2284
  C:558EH         LINE#         2285
  C:5596H         LINE#         2286
  C:55A0H         LINE#         2287
  C:55A0H         LINE#         2288
  C:55A8H         LINE#         2289
  C:55AEH         LINE#         2291
  C:55B3H         LINE#         2292
  C:55B4H         LINE#         2294
BL51 BANKED LINKER/LOCATER V6.22                                                      04/28/2015  17:26:03  PAGE 120


  C:55B9H         LINE#         2295
  C:55BAH         LINE#         2297
  C:55BAH         LINE#         2298
  C:55BAH         LINE#         2301
  C:55C0H         LINE#         2302
  C:55C6H         LINE#         2303
  C:55CBH         LINE#         2304
  C:55F5H         LINE#         2306
  C:55F5H         LINE#         2307
  C:55FAH         LINE#         2308
  C:55FFH         LINE#         2309
  C:5600H         LINE#         2311
  C:5605H         LINE#         2312
  C:5606H         LINE#         2313
  C:5606H         LINE#         2315
  C:5606H         LINE#         2316
  C:560BH         LINE#         2317
  C:560BH         LINE#         2319
  C:560BH         LINE#         2323
  -------         ENDPROC       _ENABLEPRINTINGCIRCUITRYTASK
  -------         PROC          _DISABLEPRINTINGCIRCUITRYTASK
  X:0CDFH         SYMBOL        Arg
  -------         DO            
  X:0CE0H         SYMBOL        Status
  -------         DO            
  X:0CE1H         SYMBOL        Msg
  -------         ENDDO         
  -------         ENDDO         
  C:67C5H         LINE#         2332
  C:67CAH         LINE#         2333
  C:67CAH         LINE#         2342
  C:67E0H         LINE#         2343
  C:67E0H         LINE#         2345
  C:67E0H         LINE#         2346
  C:67E6H         LINE#         2347
  C:67ECH         LINE#         2349
  C:67F1H         LINE#         2350
  C:67F2H         LINE#         2352
  C:67F2H         LINE#         2353
  C:67FAH         LINE#         2354
  C:6804H         LINE#         2355
  C:6804H         LINE#         2356
  C:680CH         LINE#         2357
  C:6812H         LINE#         2359
  C:6817H         LINE#         2360
  C:6818H         LINE#         2362
  C:681DH         LINE#         2363
  C:681EH         LINE#         2365
  C:681EH         LINE#         2366
  C:681EH         LINE#         2369
  C:6824H         LINE#         2370
  C:682AH         LINE#         2371
  C:682FH         LINE#         2372
  C:6859H         LINE#         2374
  C:6859H         LINE#         2375
  C:685EH         LINE#         2376
  C:6863H         LINE#         2377
BL51 BANKED LINKER/LOCATER V6.22                                                      04/28/2015  17:26:03  PAGE 121


  C:6864H         LINE#         2379
  C:6869H         LINE#         2380
  C:686AH         LINE#         2381
  C:686AH         LINE#         2383
  C:686AH         LINE#         2384
  C:686FH         LINE#         2385
  C:686FH         LINE#         2387
  C:686FH         LINE#         2390
  -------         ENDPROC       _DISABLEPRINTINGCIRCUITRYTASK
  -------         PROC          _GETHEATERSSTATUSTASK
  X:0A7CH         SYMBOL        Arg
  -------         DO            
  X:0A7DH         SYMBOL        Msg
  -------         ENDDO         
  C:7931H         LINE#         2399
  C:7936H         LINE#         2400
  C:7936H         LINE#         2403
  C:793CH         LINE#         2404
  C:7945H         LINE#         2405
  C:7974H         LINE#         2407
  C:799EH         LINE#         2409
  C:79A4H         LINE#         2411
  C:79ACH         LINE#         2413
  -------         ENDPROC       _GETHEATERSSTATUSTASK
  -------         PROC          _SETHEATERSSTANDBYTEMPTASK
  X:0D4FH         SYMBOL        Arg
  -------         DO            
  X:0D50H         SYMBOL        Msg
  -------         ENDDO         
  C:86EDH         LINE#         2424
  C:86F2H         LINE#         2425
  C:86F2H         LINE#         2428
  C:86F8H         LINE#         2429
  C:86FEH         LINE#         2430
  C:8703H         LINE#         2432
  C:872DH         LINE#         2434
  C:8733H         LINE#         2436
  C:873BH         LINE#         2438
  -------         ENDPROC       _SETHEATERSSTANDBYTEMPTASK
  -------         PROC          _GETHEATERSSTANDBYTEMPTASK
  X:0A98H         SYMBOL        Arg
  -------         DO            
  X:0A99H         SYMBOL        Msg
  -------         ENDDO         
  C:79ADH         LINE#         2448
  C:79B2H         LINE#         2449
  C:79B2H         LINE#         2452
  C:79B8H         LINE#         2453
  C:79C1H         LINE#         2454
  C:79F0H         LINE#         2456
  C:7A1AH         LINE#         2458
  C:7A20H         LINE#         2460
  C:7A28H         LINE#         2463
  -------         ENDPROC       _GETHEATERSSTANDBYTEMPTASK
  -------         PROC          _SETBUMPERPARAMSTASK
  X:0D53H         SYMBOL        Arg
  -------         DO            
BL51 BANKED LINKER/LOCATER V6.22                                                      04/28/2015  17:26:03  PAGE 122


  X:0D54H         SYMBOL        Msg
  -------         ENDDO         
  C:873CH         LINE#         2472
  C:8741H         LINE#         2473
  C:8741H         LINE#         2476
  C:8747H         LINE#         2477
  C:874DH         LINE#         2478
  C:8752H         LINE#         2480
  C:877CH         LINE#         2482
  C:8782H         LINE#         2484
  C:878AH         LINE#         2485
  -------         ENDPROC       _SETBUMPERPARAMSTASK
  -------         PROC          _SETHEATERSTEMPTASK
  X:0D57H         SYMBOL        Arg
  -------         DO            
  X:0D58H         SYMBOL        Msg
  -------         ENDDO         
  C:878BH         LINE#         2495
  C:8790H         LINE#         2496
  C:8790H         LINE#         2499
  C:8796H         LINE#         2500
  C:879CH         LINE#         2501
  C:87A1H         LINE#         2503
  C:87CBH         LINE#         2505
  C:87D1H         LINE#         2507
  C:87D9H         LINE#         2509
  -------         ENDPROC       _SETHEATERSTEMPTASK
  -------         PROC          _SETHEATERSONOFFTASK
  X:0D5BH         SYMBOL        Arg
  -------         DO            
  X:0D5CH         SYMBOL        Msg
  -------         ENDDO         
  C:87DAH         LINE#         2519
  C:87DFH         LINE#         2520
  C:87DFH         LINE#         2523
  C:87E5H         LINE#         2524
  C:87EBH         LINE#         2525
  C:87F0H         LINE#         2527
  C:881AH         LINE#         2529
  C:8820H         LINE#         2531
  C:8828H         LINE#         2533
  -------         ENDPROC       _SETHEATERSONOFFTASK
  -------         PROC          _GETMATERIALLEVELTASK
  X:0AD0H         SYMBOL        Arg
  -------         DO            
  X:0AD1H         SYMBOL        Msg
  -------         ENDDO         
  C:7A29H         LINE#         2542
  C:7A2EH         LINE#         2543
  C:7A2EH         LINE#         2546
  C:7A34H         LINE#         2548
  C:7A3DH         LINE#         2550
  C:7A6CH         LINE#         2552
  C:7A96H         LINE#         2553
  C:7A9CH         LINE#         2555
  C:7AA4H         LINE#         2557
  -------         ENDPROC       _GETMATERIALLEVELTASK
BL51 BANKED LINKER/LOCATER V6.22                                                      04/28/2015  17:26:03  PAGE 123


  -------         PROC          _ISHEADSVACUUMOKTASK
  X:0DE8H         SYMBOL        Arg
  -------         DO            
  X:0DE9H         SYMBOL        Msg
  -------         ENDDO         
  C:89FDH         LINE#         2565
  C:8A02H         LINE#         2566
  C:8A02H         LINE#         2569
  C:8A08H         LINE#         2570
  C:8A10H         LINE#         2572
  C:8A3AH         LINE#         2574
  C:8A40H         LINE#         2576
  C:8A48H         LINE#         2578
  -------         ENDPROC       _ISHEADSVACUUMOKTASK
  -------         PROC          _GETVACUUMSENSORTASK
  X:0D5FH         SYMBOL        Arg
  -------         DO            
  X:0D60H         SYMBOL        Msg
  -------         ENDDO         
  C:8505H         LINE#         2587
  C:850AH         LINE#         2588
  C:850AH         LINE#         2591
  C:8510H         LINE#         2592
  C:8519H         LINE#         2593
  C:8522H         LINE#         2595
  C:854CH         LINE#         2597
  C:8552H         LINE#         2599
  C:855AH         LINE#         2601
  -------         ENDPROC       _GETVACUUMSENSORTASK
  -------         PROC          _GETAMBIENTTEMPTASK
  X:0D63H         SYMBOL        Arg
  -------         DO            
  X:0D64H         SYMBOL        Msg
  -------         ENDDO         
  C:83AAH         LINE#         2610
  C:83AFH         LINE#         2611
  C:83AFH         LINE#         2614
  C:83B5H         LINE#         2615
  C:83C0H         LINE#         2616
  C:83C9H         LINE#         2618
  C:83F3H         LINE#         2620
  C:83F9H         LINE#         2622
  C:8401H         LINE#         2624
  -------         ENDPROC       _GETAMBIENTTEMPTASK
  -------         PROC          _SETHEADSVACUUMTASK
  X:0D67H         SYMBOL        Arg
  -------         DO            
  X:0D68H         SYMBOL        Msg
  -------         ENDDO         
  C:8829H         LINE#         2634
  C:882EH         LINE#         2635
  C:882EH         LINE#         2638
  C:8834H         LINE#         2639
  C:883AH         LINE#         2640
  C:883FH         LINE#         2642
  C:8869H         LINE#         2644
  C:886FH         LINE#         2646
BL51 BANKED LINKER/LOCATER V6.22                                                      04/28/2015  17:26:03  PAGE 124


  C:8877H         LINE#         2647
  -------         ENDPROC       _SETHEADSVACUUMTASK
  -------         PROC          _RESETDRIVERCIRCUITTASK
  X:0BF2H         SYMBOL        Arg
  -------         DO            
  X:0BF3H         SYMBOL        Status
  X:0BF4H         SYMBOL        Msg
  -------         DO            
  X:0BF7H         SYMBOL        Msg
  -------         ENDDO         
  -------         ENDDO         
  C:5230H         LINE#         2657
  C:5235H         LINE#         2658
  C:5235H         LINE#         2671
  C:5251H         LINE#         2672
  C:5251H         LINE#         2674
  C:5251H         LINE#         2675
  C:5257H         LINE#         2676
  C:525DH         LINE#         2678
  C:5262H         LINE#         2679
  C:5263H         LINE#         2681
  C:5263H         LINE#         2682
  C:526BH         LINE#         2683
  C:5275H         LINE#         2684
  C:5275H         LINE#         2685
  C:527DH         LINE#         2686
  C:5283H         LINE#         2688
  C:5288H         LINE#         2689
  C:5289H         LINE#         2691
  C:528EH         LINE#         2692
  C:528FH         LINE#         2694
  C:528FH         LINE#         2695
  C:5295H         LINE#         2696
  C:529EH         LINE#         2697
  C:52AAH         LINE#         2698
  C:52B0H         LINE#         2700
  C:52B5H         LINE#         2701
  C:52B6H         LINE#         2703
  C:52B6H         LINE#         2704
  C:52BEH         LINE#         2705
  C:52C8H         LINE#         2706
  C:52C8H         LINE#         2707
  C:52D0H         LINE#         2708
  C:52D6H         LINE#         2710
  C:52DBH         LINE#         2711
  C:52DCH         LINE#         2713
  C:52E1H         LINE#         2714
  C:52E2H         LINE#         2716
  C:52E2H         LINE#         2717
  C:52E2H         LINE#         2720
  C:52E8H         LINE#         2721
  C:52EEH         LINE#         2722
  C:52F3H         LINE#         2723
  C:531DH         LINE#         2725
  C:531DH         LINE#         2726
  C:5322H         LINE#         2727
  C:5327H         LINE#         2728
BL51 BANKED LINKER/LOCATER V6.22                                                      04/28/2015  17:26:03  PAGE 125


  C:5328H         LINE#         2730
  C:532DH         LINE#         2731
  C:532EH         LINE#         2732
  C:532EH         LINE#         2734
  C:532EH         LINE#         2735
  C:5333H         LINE#         2736
  C:5333H         LINE#         2738
  C:5333H         LINE#         2741
  -------         ENDPROC       _RESETDRIVERCIRCUITTASK
  -------         PROC          _RESETDRIVERSTATETASK
  X:0CE4H         SYMBOL        Arg
  -------         DO            
  X:0CE5H         SYMBOL        Status
  -------         DO            
  X:0CE6H         SYMBOL        Msg
  -------         ENDDO         
  -------         ENDDO         
  C:6870H         LINE#         2751
  C:6875H         LINE#         2752
  C:6875H         LINE#         2761
  C:688BH         LINE#         2762
  C:688BH         LINE#         2764
  C:688BH         LINE#         2765
  C:6891H         LINE#         2766
  C:6897H         LINE#         2768
  C:689CH         LINE#         2769
  C:689DH         LINE#         2771
  C:689DH         LINE#         2772
  C:68A5H         LINE#         2773
  C:68AFH         LINE#         2774
  C:68AFH         LINE#         2775
  C:68B7H         LINE#         2776
  C:68BDH         LINE#         2778
  C:68C2H         LINE#         2779
  C:68C3H         LINE#         2781
  C:68C8H         LINE#         2782
  C:68C9H         LINE#         2784
  C:68C9H         LINE#         2785
  C:68C9H         LINE#         2788
  C:68CFH         LINE#         2789
  C:68D5H         LINE#         2790
  C:68DAH         LINE#         2791
  C:6904H         LINE#         2793
  C:6904H         LINE#         2794
  C:6909H         LINE#         2795
  C:690EH         LINE#         2796
  C:690FH         LINE#         2798
  C:6914H         LINE#         2799
  C:6915H         LINE#         2800
  C:6915H         LINE#         2802
  C:6915H         LINE#         2803
  C:691AH         LINE#         2804
  C:691AH         LINE#         2806
  C:691AH         LINE#         2809
  -------         ENDPROC       _RESETDRIVERSTATETASK
  -------         PROC          _APPLYDEFAULTPARAMSTASK
  X:0CE9H         SYMBOL        Arg
BL51 BANKED LINKER/LOCATER V6.22                                                      04/28/2015  17:26:03  PAGE 126


  -------         DO            
  X:0CEAH         SYMBOL        Status
  -------         DO            
  X:0CEBH         SYMBOL        Msg
  -------         ENDDO         
  -------         ENDDO         
  C:5334H         LINE#         2818
  C:5339H         LINE#         2819
  C:5339H         LINE#         2831
  C:5355H         LINE#         2832
  C:5355H         LINE#         2833
  C:5355H         LINE#         2834
  C:535FH         LINE#         2835
  C:5365H         LINE#         2837
  C:536AH         LINE#         2838
  C:536BH         LINE#         2840
  C:536BH         LINE#         2841
  C:5373H         LINE#         2842
  C:537DH         LINE#         2843
  C:537DH         LINE#         2844
  C:5385H         LINE#         2845
  C:538BH         LINE#         2847
  C:5390H         LINE#         2848
  C:5391H         LINE#         2850
  C:5396H         LINE#         2851
  C:5397H         LINE#         2853
  C:5397H         LINE#         2854
  C:539FH         LINE#         2855
  C:53A5H         LINE#         2857
  C:53AAH         LINE#         2858
  C:53ABH         LINE#         2860
  C:53ABH         LINE#         2861
  C:53B3H         LINE#         2862
  C:53BDH         LINE#         2863
  C:53BDH         LINE#         2864
  C:53C5H         LINE#         2865
  C:53CBH         LINE#         2867
  C:53D0H         LINE#         2868
  C:53D1H         LINE#         2870
  C:53D6H         LINE#         2871
  C:53D7H         LINE#         2873
  C:53D7H         LINE#         2874
  C:53D7H         LINE#         2877
  C:53DDH         LINE#         2878
  C:53E3H         LINE#         2879
  C:53E8H         LINE#         2880
  C:5412H         LINE#         2881
  C:5412H         LINE#         2882
  C:5417H         LINE#         2883
  C:541CH         LINE#         2884
  C:541DH         LINE#         2886
  C:5422H         LINE#         2887
  C:5423H         LINE#         2888
  C:5423H         LINE#         2890
  C:5423H         LINE#         2891
  C:5428H         LINE#         2892
  C:5428H         LINE#         2894
BL51 BANKED LINKER/LOCATER V6.22                                                      04/28/2015  17:26:03  PAGE 127


  C:5428H         LINE#         2897
  -------         ENDPROC       _APPLYDEFAULTPARAMSTASK
  -------         PROC          _GETSOFTWAREVERSIONTASK
  X:0D6BH         SYMBOL        Arg
  -------         DO            
  X:0D6CH         SYMBOL        Msg
  -------         ENDDO         
  C:85AFH         LINE#         2906
  C:85B4H         LINE#         2907
  C:85B4H         LINE#         2910
  C:85BAH         LINE#         2911
  C:85C0H         LINE#         2912
  C:85C6H         LINE#         2914
  C:85F0H         LINE#         2916
  C:85F6H         LINE#         2918
  C:85FEH         LINE#         2919
  -------         ENDPROC       _GETSOFTWAREVERSIONTASK
  -------         PROC          _OHDBGETA2DSWVERSIONTASK
  X:0D6FH         SYMBOL        Arg
  -------         DO            
  X:0D70H         SYMBOL        Msg
  -------         ENDDO         
  C:8108H         LINE#         2922
  C:810DH         LINE#         2923
  C:810DH         LINE#         2926
  C:8113H         LINE#         2928
  C:8139H         LINE#         2930
  C:8163H         LINE#         2932
  C:8169H         LINE#         2934
  C:8171H         LINE#         2935
  -------         ENDPROC       _OHDBGETA2DSWVERSIONTASK
  -------         PROC          _GETHARDWAREVERSIONTASK
  X:0DEBH         SYMBOL        Arg
  -------         DO            
  X:054DH         SYMBOL        Data
  -------         DO            
  X:0DECH         SYMBOL        Msg
  -------         ENDDO         
  -------         ENDDO         
  C:6A63H         LINE#         2943
  C:6A68H         LINE#         2944
  C:6A68H         LINE#         2953
  C:6A7EH         LINE#         2954
  C:6A7EH         LINE#         2955
  C:6A7EH         LINE#         2956
  C:6A86H         LINE#         2957
  C:6A8CH         LINE#         2959
  C:6A91H         LINE#         2960
  C:6A92H         LINE#         2962
  C:6A92H         LINE#         2963
  C:6AA0H         LINE#         2964
  C:6AA6H         LINE#         2966
  C:6AABH         LINE#         2967
  C:6AACH         LINE#         2969
  C:6AACH         LINE#         2970
  C:6AACH         LINE#         2973
  C:6AB2H         LINE#         2974
BL51 BANKED LINKER/LOCATER V6.22                                                      04/28/2015  17:26:03  PAGE 128


  C:6ABFH         LINE#         2975
  C:6AE9H         LINE#         2977
  C:6AE9H         LINE#         2978
  C:6AEEH         LINE#         2979
  C:6AF3H         LINE#         2980
  C:6AF4H         LINE#         2982
  C:6AF9H         LINE#         2983
  C:6AFAH         LINE#         2984
  C:6AFAH         LINE#         2986
  C:6AFAH         LINE#         2987
  C:6AFFH         LINE#         2988
  C:6AFFH         LINE#         2990
  C:6AFFH         LINE#         2993
  -------         ENDPROC       _GETHARDWAREVERSIONTASK
  -------         PROC          _OHDBPINGTASK
  X:0E16H         SYMBOL        Arg
  -------         DO            
  X:0E17H         SYMBOL        Msg
  -------         ENDDO         
  C:8BEFH         LINE#         3037
  C:8BF4H         LINE#         3038
  C:8BF4H         LINE#         3041
  C:8BFAH         LINE#         3043
  C:8C24H         LINE#         3045
  C:8C2AH         LINE#         3047
  C:8C32H         LINE#         3049
  -------         ENDPROC       _OHDBPINGTASK
  -------         PROC          _SETPRINTINGHEADVOLTAGETASK
  X:0CEEH         SYMBOL        Arg
  -------         DO            
  X:054FH         SYMBOL        HeadNum
  X:0CEFH         SYMBOL        Status
  -------         DO            
  X:0CF0H         SYMBOL        Msg
  -------         ENDDO         
  -------         ENDDO         
  C:58C2H         LINE#         3059
  C:58C7H         LINE#         3060
  C:58C7H         LINE#         3073
  C:58DDH         LINE#         3074
  C:58DDH         LINE#         3075
  C:58DDH         LINE#         3076
  C:58F9H         LINE#         3077
  C:58FFH         LINE#         3079
  C:5904H         LINE#         3080
  C:5905H         LINE#         3082
  C:5905H         LINE#         3083
  C:5912H         LINE#         3084
  C:591CH         LINE#         3085
  C:591CH         LINE#         3086
  C:5924H         LINE#         3087
  C:5924H         LINE#         3088
  C:592AH         LINE#         3089
  C:5935H         LINE#         3090
  C:593BH         LINE#         3092
  C:593BH         LINE#         3093
  C:5940H         LINE#         3094
BL51 BANKED LINKER/LOCATER V6.22                                                      04/28/2015  17:26:03  PAGE 129


  C:5945H         LINE#         3095
  C:5945H         LINE#         3096
  C:5946H         LINE#         3098
  C:594BH         LINE#         3099
  C:594CH         LINE#         3101
  C:5951H         LINE#         3102
  C:5952H         LINE#         3104
  C:5952H         LINE#         3105
  C:5952H         LINE#         3108
  C:5958H         LINE#         3109
  C:595EH         LINE#         3110
  C:5963H         LINE#         3112
  C:598DH         LINE#         3114
  C:598DH         LINE#         3115
  C:5992H         LINE#         3116
  C:5997H         LINE#         3117
  C:5998H         LINE#         3119
  C:599DH         LINE#         3120
  C:599EH         LINE#         3121
  C:599EH         LINE#         3123
  C:599EH         LINE#         3124
  C:59A3H         LINE#         3125
  C:59A3H         LINE#         3126
  C:59A3H         LINE#         3128
  -------         ENDPROC       _SETPRINTINGHEADVOLTAGETASK
  -------         PROC          _GETPRINTINGHEADVOLTAGETASK
  X:0AFCH         SYMBOL        Arg
  -------         DO            
  X:0AFDH         SYMBOL        Msg
  -------         ENDDO         
  C:7AA5H         LINE#         3136
  C:7AAAH         LINE#         3137
  C:7AAAH         LINE#         3140
  C:7AB0H         LINE#         3141
  C:7AB9H         LINE#         3142
  C:7AE8H         LINE#         3144
  C:7B12H         LINE#         3146
  C:7B18H         LINE#         3148
  C:7B20H         LINE#         3150
  -------         ENDPROC       _GETPRINTINGHEADVOLTAGETASK
  -------         PROC          _GETPOWERSUPPLIESTASK
  X:0B2CH         SYMBOL        Arg
  -------         DO            
  X:0B2DH         SYMBOL        Msg
  -------         ENDDO         
  C:7B21H         LINE#         3159
  C:7B26H         LINE#         3160
  C:7B26H         LINE#         3163
  C:7B2CH         LINE#         3165
  C:7B35H         LINE#         3166
  C:7B64H         LINE#         3168
  C:7B8EH         LINE#         3170
  C:7B94H         LINE#         3172
  C:7B9CH         LINE#         3173
  -------         ENDPROC       _GETPOWERSUPPLIESTASK
  -------         PROC          _GETHEADDATATASK
  X:0989H         SYMBOL        Arg
BL51 BANKED LINKER/LOCATER V6.22                                                      04/28/2015  17:26:03  PAGE 130


  -------         DO            
  X:098AH         SYMBOL        Msg
  -------         ENDDO         
  C:5D1BH         LINE#         3182
  C:5D20H         LINE#         3183
  C:5D20H         LINE#         3186
  C:5D26H         LINE#         3187
  C:5D30H         LINE#         3188
  C:5D45H         LINE#         3190
  C:5D4EH         LINE#         3191
  C:5D57H         LINE#         3192
  C:5D60H         LINE#         3193
  C:5D69H         LINE#         3194
  C:5D72H         LINE#         3195
  C:5D7BH         LINE#         3196
  C:5D84H         LINE#         3197
  C:5D8DH         LINE#         3198
  C:5D96H         LINE#         3199
  C:5D9FH         LINE#         3200
  C:5DA8H         LINE#         3201
  C:5DB1H         LINE#         3202
  C:5DBAH         LINE#         3204
  C:5DE4H         LINE#         3206
  C:5DEAH         LINE#         3208
  C:5DF2H         LINE#         3209
  -------         ENDPROC       _GETHEADDATATASK
  -------         PROC          _SETMATERIALCOOLINGFANSTASK
  X:0D73H         SYMBOL        Arg
  -------         DO            
  X:0D74H         SYMBOL        Msg
  -------         ENDDO         
  C:8878H         LINE#         3217
  C:887DH         LINE#         3218
  C:887DH         LINE#         3221
  C:8883H         LINE#         3222
  C:8889H         LINE#         3223
  C:888EH         LINE#         3225
  C:88B8H         LINE#         3227
  C:88BEH         LINE#         3229
  C:88C6H         LINE#         3231
  -------         ENDPROC       _SETMATERIALCOOLINGFANSTASK
  -------         PROC          _GETFIREALLSTATUSTASK
  X:0D77H         SYMBOL        Arg
  -------         DO            
  X:0D78H         SYMBOL        Msg
  -------         ENDDO         
  C:855BH         LINE#         3239
  C:8560H         LINE#         3240
  C:8560H         LINE#         3243
  C:8566H         LINE#         3244
  C:856EH         LINE#         3245
  C:8576H         LINE#         3247
  C:85A0H         LINE#         3249
  C:85A6H         LINE#         3251
  C:85AEH         LINE#         3252
  -------         ENDPROC       _GETFIREALLSTATUSTASK
  -------         PROC          _SETDEBUGMODETASK
BL51 BANKED LINKER/LOCATER V6.22                                                      04/28/2015  17:26:03  PAGE 131


  X:0D7BH         SYMBOL        Arg
  -------         DO            
  X:0D7CH         SYMBOL        Msg
  -------         ENDDO         
  C:88C7H         LINE#         3262
  C:88CCH         LINE#         3263
  C:88CCH         LINE#         3266
  C:88D2H         LINE#         3267
  C:88D8H         LINE#         3268
  C:88DDH         LINE#         3270
  C:8907H         LINE#         3272
  C:890DH         LINE#         3274
  C:8915H         LINE#         3275
  -------         ENDPROC       _SETDEBUGMODETASK
  -------         PROC          _SETHEADDATANACKTASK
  X:0D7FH         SYMBOL        Arg
  -------         DO            
  X:0D80H         SYMBOL        Msg
  -------         ENDDO         
  C:85FFH         LINE#         3284
  C:8604H         LINE#         3285
  C:8604H         LINE#         3288
  C:860AH         LINE#         3289
  C:8610H         LINE#         3290
  C:8616H         LINE#         3292
  C:8640H         LINE#         3294
  C:8646H         LINE#         3296
  C:864EH         LINE#         3297
  -------         ENDPROC       _SETHEADDATANACKTASK
  -------         PROC          _SETBUMPERIMPACTONOFFTASK
  X:0D83H         SYMBOL        Arg
  -------         DO            
  X:0D84H         SYMBOL        Msg
  -------         ENDDO         
  C:8916H         LINE#         3306
  C:891BH         LINE#         3307
  C:891BH         LINE#         3310
  C:8921H         LINE#         3311
  C:8927H         LINE#         3312
  C:892CH         LINE#         3314
  C:8956H         LINE#         3316
  C:895CH         LINE#         3318
  C:8964H         LINE#         3319
  -------         ENDPROC       _SETBUMPERIMPACTONOFFTASK
  -------         PROC          _SETBUMPERPEGONOFFTASK
  X:0CF3H         SYMBOL        Arg
  -------         DO            
  X:0CF4H         SYMBOL        Status
  -------         DO            
  X:0CF5H         SYMBOL        Msg
  -------         ENDDO         
  -------         ENDDO         
  C:6509H         LINE#         3329
  C:650EH         LINE#         3330
  C:650EH         LINE#         3339
  C:6524H         LINE#         3340
  C:6524H         LINE#         3342
BL51 BANKED LINKER/LOCATER V6.22                                                      04/28/2015  17:26:03  PAGE 132


  C:6524H         LINE#         3343
  C:652FH         LINE#         3344
  C:6535H         LINE#         3346
  C:653AH         LINE#         3347
  C:653BH         LINE#         3349
  C:653BH         LINE#         3350
  C:6543H         LINE#         3351
  C:654DH         LINE#         3352
  C:654DH         LINE#         3353
  C:6555H         LINE#         3354
  C:655BH         LINE#         3356
  C:6560H         LINE#         3357
  C:6561H         LINE#         3359
  C:6566H         LINE#         3360
  C:6567H         LINE#         3362
  C:6567H         LINE#         3363
  C:6567H         LINE#         3366
  C:656DH         LINE#         3367
  C:6573H         LINE#         3368
  C:6578H         LINE#         3369
  C:65A2H         LINE#         3371
  C:65A2H         LINE#         3372
  C:65A7H         LINE#         3373
  C:65ACH         LINE#         3374
  C:65ADH         LINE#         3376
  C:65B2H         LINE#         3377
  C:65B3H         LINE#         3378
  C:65B3H         LINE#         3380
  C:65B3H         LINE#         3381
  C:65B8H         LINE#         3382
  C:65B8H         LINE#         3384
  C:65B8H         LINE#         3387
  -------         ENDPROC       _SETBUMPERPEGONOFFTASK
  -------         ENDMOD        MSGDECODEOHDB

  -------         MODULE        ACTUATORSOHDB
  C:0000H         SYMBOL        _ICE_DUMMY_
  D:00B0H         PUBLIC        P3
  X:0D8BH         PUBLIC        FansActivationTaskHandle
  C:7D07H         PUBLIC        _SetMaterialCoolingFansOnOff
  X:0D8CH         PUBLIC        FansActivationTaskData
  C:691BH         PUBLIC        _FansActivationTask
  X:0D8EH         PUBLIC        CoolingFansSpeed
  C:8E3AH         PUBLIC        InitCoolingFans
  -------         PROC          INITCOOLINGFANS
  C:8E3AH         LINE#         47
  C:8E3AH         LINE#         48
  C:8E3AH         LINE#         53
  C:8E42H         LINE#         54
  C:8E48H         LINE#         57
  C:8E56H         LINE#         58
  C:8E6AH         LINE#         66
  C:8E78H         LINE#         67
  -------         ENDPROC       INITCOOLINGFANS
  -------         PROC          _SETMATERIALCOOLINGFANSONOFF
  X:0E18H         SYMBOL        OnOff
  X:0E19H         SYMBOL        OnPeriod
BL51 BANKED LINKER/LOCATER V6.22                                                      04/28/2015  17:26:03  PAGE 133


  C:7D07H         LINE#         76
  C:7D11H         LINE#         77
  C:7D11H         LINE#         82
  C:7D19H         LINE#         83
  C:7D21H         LINE#         85
  C:7D48H         LINE#         87
  C:7D50H         LINE#         88
  C:7D50H         LINE#         95
  C:7D64H         LINE#         96
  C:7D66H         LINE#         98
  C:7D66H         LINE#         105
  C:7D74H         LINE#         106
  C:7D74H         LINE#         108
  C:7D7EH         LINE#         109
  -------         ENDPROC       _SETMATERIALCOOLINGFANSONOFF
  -------         PROC          _FANSACTIVATIONTASK
  X:0D87H         SYMBOL        Arg
  -------         DO            
  X:0D88H         SYMBOL        Msg
  -------         ENDDO         
  C:691BH         LINE#         111
  C:6920H         LINE#         112
  C:6920H         LINE#         123
  C:6939H         LINE#         124
  C:6939H         LINE#         125
  C:6939H         LINE#         126
  C:6939H         LINE#         127
  C:693FH         LINE#         128
  C:694FH         LINE#         130
  C:695BH         LINE#         131
  C:6961H         LINE#         133
  C:6966H         LINE#         134
  C:6966H         LINE#         135
  C:6967H         LINE#         137
  C:6967H         LINE#         138
  C:6967H         LINE#         139
  C:696FH         LINE#         140
  C:6975H         LINE#         142
  C:697AH         LINE#         143
  C:697AH         LINE#         144
  C:697BH         LINE#         146
  C:697BH         LINE#         147
  C:697BH         LINE#         148
  C:6981H         LINE#         149
  C:6990H         LINE#         151
  C:699CH         LINE#         152
  C:69A2H         LINE#         154
  C:69A7H         LINE#         155
  C:69A7H         LINE#         156
  C:69A8H         LINE#         158
  C:69A8H         LINE#         159
  C:69A8H         LINE#         160
  C:69B0H         LINE#         161
  C:69B0H         LINE#         162
  C:69B5H         LINE#         163
  C:69BAH         LINE#         164
  C:69BBH         LINE#         166
BL51 BANKED LINKER/LOCATER V6.22                                                      04/28/2015  17:26:03  PAGE 134


  C:69C0H         LINE#         167
  C:69C0H         LINE#         168
  C:69C0H         LINE#         170
  C:69C0H         LINE#         171
  C:69C0H         LINE#         172
  C:69C0H         LINE#         173
  -------         ENDPROC       _FANSACTIVATIONTASK
  -------         ENDMOD        ACTUATORSOHDB

  -------         MODULE        SENSORSOHDB
  C:0000H         SYMBOL        _ICE_DUMMY_
  C:6FB3H         PUBLIC        _Sensors_GetMaterialLevelSensors
  X:0B0EH         PUBLIC        ThermistorLevelTable
  C:8D3BH         PUBLIC        Sensors_IsHeadsVacuumOk
  C:6717H         PUBLIC        _Sensors_GetPowerSuppliesVoltages
  C:8402H         PUBLIC        _Sensors_SetHeadsVacuumParams
  C:9C69H         PUBLIC        Sensors_GetAmbientTempSensor
  X:0B1AH         PUBLIC        VacuumParams
  C:9862H         PUBLIC        _Sensors_GetVacuumSensor
  -------         PROC          _SENSORS_GETMATERIALLEVELSENSORS
  X:0DEEH         SYMBOL        ThermistorLevelArr
  -------         DO            
  I:0027H         SYMBOL        i
  -------         ENDDO         
  C:6FB3H         LINE#         100
  C:6FBEH         LINE#         101
  C:6FBEH         LINE#         102
  C:6FC2H         LINE#         104
  C:6FCCH         LINE#         105
  C:6FCCH         LINE#         106
  C:6FD6H         LINE#         107
  C:700AH         LINE#         109
  C:703CH         LINE#         110
  C:7041H         LINE#         117
  -------         ENDPROC       _SENSORS_GETMATERIALLEVELSENSORS
  -------         PROC          _SENSORS_SETHEADSVACUUMPARAMS
  X:0CF8H         SYMBOL        Params
  -------         DO            
  X:0CFBH         SYMBOL        SetParams
  -------         ENDDO         
  C:8402H         LINE#         128
  C:840DH         LINE#         129
  C:840DH         LINE#         130
  C:8424H         LINE#         132
  C:843DH         LINE#         133
  C:8458H         LINE#         134
  -------         ENDPROC       _SENSORS_SETHEADSVACUUMPARAMS
  -------         PROC          SENSORS_ISHEADSVACUUMOK
  -------         DO            
  X:0E1AH         SYMBOL        VacuumValue
  -------         ENDDO         
  C:8D3BH         LINE#         147
  C:8D3BH         LINE#         148
  C:8D3BH         LINE#         151
  C:8D48H         LINE#         152
  C:8D76H         LINE#         153
  C:8D79H         LINE#         155
BL51 BANKED LINKER/LOCATER V6.22                                                      04/28/2015  17:26:03  PAGE 135


  C:8D7BH         LINE#         156
  -------         ENDPROC       SENSORS_ISHEADSVACUUMOK
  -------         PROC          _SENSORS_GETVACUUMSENSOR
  X:0DF1H         SYMBOL        VacuumSensors
  C:9862H         LINE#         167
  C:986DH         LINE#         168
  C:986DH         LINE#         169
  C:9883H         LINE#         170
  -------         ENDPROC       _SENSORS_GETVACUUMSENSOR
  -------         PROC          SENSORS_GETAMBIENTTEMPSENSOR
  C:9C69H         LINE#         181
  C:9C69H         LINE#         182
  C:9C69H         LINE#         183
  C:9C6EH         LINE#         184
  -------         ENDPROC       SENSORS_GETAMBIENTTEMPSENSOR
  -------         PROC          _SENSORS_GETPOWERSUPPLIESVOLTAGES
  X:0DF4H         SYMBOL        Voltages
  C:6717H         LINE#         194
  C:6722H         LINE#         195
  C:6722H         LINE#         196
  C:6738H         LINE#         197
  C:6754H         LINE#         198
  C:6770H         LINE#         199
  C:678CH         LINE#         200
  C:67A8H         LINE#         201
  C:67C4H         LINE#         202
  -------         ENDPROC       _SENSORS_GETPOWERSUPPLIESVOLTAGES
  -------         ENDMOD        SENSORSOHDB

  -------         MODULE        POTENTIOMETEROHDB
  C:0000H         SYMBOL        _ICE_DUMMY_
  C:6B9BH         PUBLIC        _OHDBPotenmtrWriteValue
  C:9C31H         PUBLIC        OHDBPotenmtrInit
  X:0C66H         PUBLIC        OHDBPotenmtrTransactionStatus
  X:0C67H         PUBLIC        OHDBPotenmtrDataIn
  C:95D6H         PUBLIC        _OHDBPotenmtrGetWriteStatus
  X:0C6AH         PUBLIC        OHDBPotenmtrAddress
  C:97B6H         PUBLIC        _OHDBPotenmtrCallBack
  -------         PROC          OHDBPOTENMTRINIT
  C:9C31H         LINE#         40
  C:9C31H         LINE#         41
  C:9C31H         LINE#         42
  C:9C37H         LINE#         43
  -------         ENDPROC       OHDBPOTENMTRINIT
  -------         PROC          _OHDBPOTENMTRWRITEVALUE
  X:0D8FH         SYMBOL        DeviceNum
  X:0D90H         SYMBOL        Value
  -------         DO            
  X:0D91H         SYMBOL        Message
  -------         ENDDO         
  C:6B9BH         LINE#         54
  C:6BA5H         LINE#         55
  C:6BA5H         LINE#         59
  C:6BACH         LINE#         60
  C:6BAFH         LINE#         63
  C:6BB5H         LINE#         66
  C:6BC3H         LINE#         69
BL51 BANKED LINKER/LOCATER V6.22                                                      04/28/2015  17:26:03  PAGE 136


  C:6BD2H         LINE#         70
  C:6BF5H         LINE#         71
  C:6C09H         LINE#         74
  C:6C33H         LINE#         76
  C:6C35H         LINE#         77
  -------         ENDPROC       _OHDBPOTENMTRWRITEVALUE
  -------         PROC          _OHDBPOTENMTRCALLBACK
  X:0E32H         SYMBOL        Status
  C:97B6H         LINE#         91
  C:97C0H         LINE#         93
  C:97C8H         LINE#         94
  C:97D0H         LINE#         96
  C:97D6H         LINE#         97
  -------         ENDPROC       _OHDBPOTENMTRCALLBACK
  -------         PROC          _OHDBPOTENMTRGETWRITESTATUS
  X:0E33H         SYMBOL        DeviceNum
  C:95D6H         LINE#         112
  C:95DBH         LINE#         113
  C:95DBH         LINE#         116
  C:95E4H         LINE#         117
  C:95E7H         LINE#         121
  C:95F5H         LINE#         126
  C:95F8H         LINE#         128
  C:95FDH         LINE#         129
  -------         ENDPROC       _OHDBPOTENMTRGETWRITESTATUS
  -------         ENDMOD        POTENTIOMETEROHDB

  -------         MODULE        EDENPROTOCOLOHDB
  C:0000H         SYMBOL        _ICE_DUMMY_
  C:3DE0H         PUBLIC        _OHDBEdenProtocolSend
  X:040AH         PUBLIC        EdenProtocolTransactionId
  X:040BH         PUBLIC        EdenProtocolBuffer
  C:8A49H         PUBLIC        _EdenProtocolDecodeTask
  C:1D67H         PUBLIC        _OHDBEdenProtocolDecode
  X:0490H         PUBLIC        MsgRingBuff
  C:9C38H         PUBLIC        OHDBEdenProtocolGetMsgBuff
  X:054AH         PUBLIC        RcvRingBufferPtr
  C:9675H         PUBLIC        EdenProtocolInit
  -------         PROC          EDENPROTOCOLINIT
  C:9675H         LINE#         86
  C:9675H         LINE#         87
  C:9675H         LINE#         88
  C:967BH         LINE#         89
  C:968AH         LINE#         90
  C:969BH         LINE#         91
  -------         ENDPROC       EDENPROTOCOLINIT
  -------         PROC          _OHDBEDENPROTOCOLSEND
  X:0B79H         SYMBOL        Data
  X:0B7CH         SYMBOL        DataLength
  X:0B7EH         SYMBOL        DestId
  X:0B7FH         SYMBOL        Transaction
  X:0B80H         SYMBOL        Reply
  -------         DO            
  X:0B81H         SYMBOL        BufIndex
  X:0B82H         SYMBOL        i
  X:0B83H         SYMBOL        CheckSum
  X:0B84H         SYMBOL        TransactionId
BL51 BANKED LINKER/LOCATER V6.22                                                      04/28/2015  17:26:03  PAGE 137


  -------         ENDDO         
  C:3DE0H         LINE#         106
  C:3DF3H         LINE#         107
  C:3DF3H         LINE#         108
  C:3DF8H         LINE#         110
  C:3E00H         LINE#         111
  C:3E0CH         LINE#         113
  C:3E16H         LINE#         117
  C:3E27H         LINE#         118
  C:3E2AH         LINE#         122
  C:3E30H         LINE#         123
  C:3E36H         LINE#         128
  C:3E3CH         LINE#         129
  C:3E50H         LINE#         130
  C:3E52H         LINE#         131
  C:3E66H         LINE#         132
  C:3E7EH         LINE#         133
  C:3E87H         LINE#         134
  C:3E9BH         LINE#         135
  C:3EB3H         LINE#         136
  C:3EBCH         LINE#         137
  C:3ED0H         LINE#         140
  C:3ED8H         LINE#         141
  C:3ED8H         LINE#         142
  C:3EE2H         LINE#         143
  C:3EE8H         LINE#         144
  C:3EE8H         LINE#         149
  C:3F03H         LINE#         150
  C:3F03H         LINE#         151
  C:3F2FH         LINE#         152
  C:3F4CH         LINE#         153
  C:3F60H         LINE#         155
  C:3F68H         LINE#         159
  C:3F7AH         LINE#         160
  C:3F7FH         LINE#         161
  C:3F99H         LINE#         162
  C:3F9EH         LINE#         166
  C:3FB3H         LINE#         167
  C:3FD2H         LINE#         169
  C:3FEAH         LINE#         174
  C:3FFBH         LINE#         175
  C:3FFEH         LINE#         177
  C:4000H         LINE#         179
  -------         ENDPROC       _OHDBEDENPROTOCOLSEND
  -------         PROC          _EDENPROTOCOLDECODETASK
  X:0E1CH         SYMBOL        Arg
  -------         DO            
  X:0E1DH         SYMBOL        Data
  -------         ENDDO         
  C:8A49H         LINE#         189
  C:8A4EH         LINE#         190
  C:8A4EH         LINE#         193
  C:8A80H         LINE#         194
  C:8A80H         LINE#         195
  C:8A88H         LINE#         196
  C:8A88H         LINE#         198
  C:8A90H         LINE#         200
BL51 BANKED LINKER/LOCATER V6.22                                                      04/28/2015  17:26:03  PAGE 138


  -------         ENDPROC       _EDENPROTOCOLDECODETASK
  -------         PROC          _OHDBEDENPROTOCOLDECODE
  X:0CFDH         SYMBOL        RData
  -------         DO            
  X:0CFEH         SYMBOL        MsgHandle
  X:0D00H         SYMBOL        Message
  -------         ENDDO         
  C:1D67H         LINE#         214
  C:1D6CH         LINE#         215
  C:1D6CH         LINE#         219
  C:1D7DH         LINE#         220
  C:1D92H         LINE#         223
  C:1DAFH         LINE#         224
  C:1DBEH         LINE#         227
  C:1E01H         LINE#         228
  C:1E01H         LINE#         229
  C:1E01H         LINE#         232
  C:1E0EH         LINE#         233
  C:1E29H         LINE#         234
  C:1E2AH         LINE#         236
  C:1E2AH         LINE#         239
  C:1E33H         LINE#         240
  C:1E4FH         LINE#         244
  C:1E69H         LINE#         245
  C:1E6AH         LINE#         247
  C:1E6AH         LINE#         248
  C:1E89H         LINE#         249
  C:1EB2H         LINE#         250
  C:1ECDH         LINE#         251
  C:1EE8H         LINE#         252
  C:1EE9H         LINE#         254
  C:1EE9H         LINE#         255
  C:1EF1H         LINE#         256
  C:1F26H         LINE#         258
  C:1F26H         LINE#         259
  C:1F43H         LINE#         260
  C:1F43H         LINE#         261
  C:1F4CH         LINE#         262
  C:1F68H         LINE#         264
  C:1F82H         LINE#         265
  C:1F83H         LINE#         267
  C:1F83H         LINE#         269
  C:1F9DH         LINE#         270
  C:1FB7H         LINE#         271
  C:1FB7H         LINE#         272
  C:1FB7H         LINE#         273
  C:1FB8H         LINE#         275
  C:1FB8H         LINE#         278
  C:1FE1H         LINE#         282
  C:201FH         LINE#         286
  C:2065H         LINE#         287
  C:2065H         LINE#         290
  C:207FH         LINE#         291
  C:2099H         LINE#         295
  C:20B3H         LINE#         297
  C:20CEH         LINE#         298
  C:20E9H         LINE#         299
BL51 BANKED LINKER/LOCATER V6.22                                                      04/28/2015  17:26:03  PAGE 139


  C:20EAH         LINE#         301
  C:20EAH         LINE#         302
  C:20F3H         LINE#         303
  C:210FH         LINE#         307
  C:2129H         LINE#         308
  C:2129H         LINE#         309
  C:212AH         LINE#         311
  C:212AH         LINE#         313
  C:2133H         LINE#         314
  C:2133H         LINE#         315
  C:214EH         LINE#         316
  C:2169H         LINE#         317
  C:216BH         LINE#         319
  C:2186H         LINE#         321
  C:21A1H         LINE#         322
  C:21BCH         LINE#         325
  C:21DCH         LINE#         328
  C:21F7H         LINE#         329
  C:21F8H         LINE#         331
  C:21F8H         LINE#         334
  C:2201H         LINE#         335
  C:2201H         LINE#         336
  C:221CH         LINE#         337
  C:2237H         LINE#         338
  C:2239H         LINE#         340
  C:2254H         LINE#         342
  C:226FH         LINE#         343
  C:228AH         LINE#         347
  C:22AAH         LINE#         351
  C:22C5H         LINE#         352
  C:22C6H         LINE#         354
  C:22C6H         LINE#         357
  C:22CFH         LINE#         358
  C:22CFH         LINE#         359
  C:22EAH         LINE#         360
  C:2305H         LINE#         361
  C:2307H         LINE#         363
  C:2322H         LINE#         365
  C:233DH         LINE#         366
  C:2358H         LINE#         370
  C:2378H         LINE#         374
  C:2393H         LINE#         375
  C:2394H         LINE#         377
  C:2394H         LINE#         380
  C:239DH         LINE#         381
  C:239DH         LINE#         382
  C:23B8H         LINE#         383
  C:23D3H         LINE#         384
  C:23D3H         LINE#         386
  C:23EEH         LINE#         390
  C:240EH         LINE#         394
  C:2429H         LINE#         395
  C:2444H         LINE#         399
  C:2480H         LINE#         400
  C:2480H         LINE#         403
  C:249BH         LINE#         404
  C:249BH         LINE#         405
BL51 BANKED LINKER/LOCATER V6.22                                                      04/28/2015  17:26:03  PAGE 140


  C:249CH         LINE#         407
  C:249CH         LINE#         410
  C:24C3H         LINE#         411
  C:24E0H         LINE#         413
  C:24E0H         LINE#         416
  C:24E9H         LINE#         421
  C:24E9H         LINE#         423
  C:2503H         LINE#         424
  C:2504H         LINE#         432
  C:2504H         LINE#         435
  C:2511H         LINE#         436
  C:2511H         LINE#         437
  C:255EH         LINE#         438
  C:257BH         LINE#         440
  C:25AFH         LINE#         444
  C:260FH         LINE#         447
  C:260FH         LINE#         450
  C:262AH         LINE#         453
  C:264AH         LINE#         454
  C:264AH         LINE#         455
  C:264CH         LINE#         457
  C:264CH         LINE#         461
  C:2655H         LINE#         462
  C:2672H         LINE#         466
  C:268CH         LINE#         467
  C:268CH         LINE#         468
  C:269BH         LINE#         469
  C:269BH         LINE#         470
  C:269BH         LINE#         471
  -------         ENDPROC       _OHDBEDENPROTOCOLDECODE
  -------         PROC          OHDBEDENPROTOCOLGETMSGBUFF
  C:9C38H         LINE#         486
  C:9C38H         LINE#         487
  C:9C38H         LINE#         488
  C:9C3EH         LINE#         489
  -------         ENDPROC       OHDBEDENPROTOCOLGETMSGBUFF
  -------         ENDMOD        EDENPROTOCOLOHDB

  -------         MODULE        HEADSVOLTAGEREADER
  C:0000H         SYMBOL        _ICE_DUMMY_
  C:9A49H         PUBLIC        _A2D0Reader_GetReading
  D:00B0H         PUBLIC        P3
  C:62CFH         PUBLIC        _HeadsVoltageReaderTask
  C:95FEH         PUBLIC        HeadsVoltageReaderInit
  X:0AB4H         PUBLIC        OrderedIndex
  C:7B9DH         PUBLIC        _A2D0Reader_GetBlockReadings
  B:0021H.3       PUBLIC        SwitchData
  C:999CH         PUBLIC        _A2D0Reader_GetHeadsVoltages
  X:0ABDH         SYMBOL        ReaderA2D0SamplesBuffer
  B:00E8H.4       PUBLIC        AD0BUSY
  X:0ACFH         PUBLIC        HeadsVoltageReaderTaskHandle
  -------         PROC          HEADSVOLTAGEREADERINIT
  C:95FEH         LINE#         39
  C:95FEH         LINE#         40
  C:95FEH         LINE#         41
  C:960DH         LINE#         43
  C:961BH         LINE#         44
BL51 BANKED LINKER/LOCATER V6.22                                                      04/28/2015  17:26:03  PAGE 141


  C:9625H         LINE#         45
  -------         ENDPROC       HEADSVOLTAGEREADERINIT
  -------         PROC          _HEADSVOLTAGEREADERTASK
  X:0D93H         SYMBOL        Arg
  -------         DO            
  D:0023H         SYMBOL        SelectedInput
  X:0D94H         SYMBOL        Msg
  -------         ENDDO         
  C:62CFH         LINE#         47
  C:62D4H         LINE#         48
  C:62D4H         LINE#         61
  C:62EDH         LINE#         62
  C:62EDH         LINE#         63
  C:62EDH         LINE#         64
  C:62EDH         LINE#         65
  C:62F2H         LINE#         68
  C:62F4H         LINE#         70
  C:62F9H         LINE#         71
  C:62F9H         LINE#         72
  C:62FAH         LINE#         74
  C:62FAH         LINE#         75
  C:62FAH         LINE#         76
  C:62FFH         LINE#         77
  C:62FFH         LINE#         78
  C:6304H         LINE#         82
  C:6328H         LINE#         85
  C:632BH         LINE#         87
  C:6336H         LINE#         88
  C:633CH         LINE#         90
  C:6341H         LINE#         91
  C:6342H         LINE#         93
  C:6342H         LINE#         94
  C:6347H         LINE#         95
  C:6347H         LINE#         96
  C:6347H         LINE#         97
  C:6348H         LINE#         99
  C:6348H         LINE#         100
  C:6348H         LINE#         101
  C:634EH         LINE#         102
  C:635CH         LINE#         104
  C:6368H         LINE#         105
  C:636EH         LINE#         107
  C:6373H         LINE#         108
  C:6373H         LINE#         109
  C:6374H         LINE#         111
  C:6374H         LINE#         112
  C:6374H         LINE#         113
  C:637CH         LINE#         114
  C:637CH         LINE#         115
  C:6385H         LINE#         117
  C:638AH         LINE#         118
  C:638BH         LINE#         120
  C:6390H         LINE#         121
  C:6390H         LINE#         122
  C:6390H         LINE#         124
  C:6390H         LINE#         125
  C:6390H         LINE#         126
BL51 BANKED LINKER/LOCATER V6.22                                                      04/28/2015  17:26:03  PAGE 142


  C:6390H         LINE#         127
  -------         ENDPROC       _HEADSVOLTAGEREADERTASK
  -------         PROC          _A2D0READER_GETREADING
  X:0E34H         SYMBOL        AnalogInNum
  C:9A49H         LINE#         129
  C:9A4EH         LINE#         130
  C:9A4EH         LINE#         131
  C:9A64H         LINE#         132
  -------         ENDPROC       _A2D0READER_GETREADING
  -------         PROC          _A2D0READER_GETBLOCKREADINGS
  X:0D02H         SYMBOL        FirstAnalogIn
  X:0D03H         SYMBOL        LastAnalogIn
  X:0D04H         SYMBOL        Buffer
  C:7B9DH         LINE#         134
  C:7BB2H         LINE#         135
  C:7BB2H         LINE#         136
  C:7C16H         LINE#         137
  -------         ENDPROC       _A2D0READER_GETBLOCKREADINGS
  -------         PROC          _A2D0READER_GETHEADSVOLTAGES
  X:0DF7H         SYMBOL        Voltages
  C:999CH         LINE#         139
  C:99A7H         LINE#         140
  C:99A7H         LINE#         141
  C:99B9H         LINE#         142
  -------         ENDPROC       _A2D0READER_GETHEADSVOLTAGES
  -------         ENDMOD        HEADSVOLTAGEREADER

  -------         MODULE        SPIEXTA2D
  C:0000H         SYMBOL        _ICE_DUMMY_
  C:9626H         PUBLIC        SpiExtA2D_GetFreeBuffer
  X:0A23H         PUBLIC        ExtA2DTransactionStatus
  C:8AD8H         PUBLIC        _SpiExtA2D_Task
  C:620AH         PUBLIC        SpiExtA2D_GetValues
  C:9905H         PUBLIC        SpiExtA2D_Init
  X:0A24H         PUBLIC        ExtA2DRxBuffer
  X:0A28H         PUBLIC        RxBufferNumber
  X:0A29H         PUBLIC        ExtA2DChannels
  X:0A31H         SYMBOL        ExtA2DSamplesBuffer
  C:9A65H         PUBLIC        _SpiExtA2D_GetReading
  C:97D9H         PUBLIC        _SpiExtA2D_CallBack
  X:0A41H         PUBLIC        SelectedChannel
  C:7497H         PUBLIC        SpiExtA2D_SendRequest
  -------         PROC          SPIEXTA2D_INIT
  C:9905H         LINE#         49
  C:9905H         LINE#         50
  C:9905H         LINE#         51
  C:990AH         LINE#         52
  C:990FH         LINE#         53
  C:9914H         LINE#         55
  C:9923H         LINE#         56
  -------         ENDPROC       SPIEXTA2D_INIT
  -------         PROC          _SPIEXTA2D_TASK
  X:0E35H         SYMBOL        Arg
  -------         DO            
  -------         ENDDO         
  C:8AD8H         LINE#         58
  C:8ADDH         LINE#         59
BL51 BANKED LINKER/LOCATER V6.22                                                      04/28/2015  17:26:03  PAGE 143


  C:8ADDH         LINE#         66
  C:8AF0H         LINE#         67
  C:8AF0H         LINE#         68
  C:8AF0H         LINE#         69
  C:8AF0H         LINE#         70
  C:8AF6H         LINE#         71
  C:8AFCH         LINE#         73
  C:8B01H         LINE#         74
  C:8B01H         LINE#         75
  C:8B02H         LINE#         77
  C:8B02H         LINE#         78
  C:8B02H         LINE#         79
  C:8B0AH         LINE#         80
  C:8B0AH         LINE#         81
  C:8B0FH         LINE#         82
  C:8B18H         LINE#         83
  C:8B19H         LINE#         85
  C:8B19H         LINE#         86
  C:8B1EH         LINE#         87
  C:8B1EH         LINE#         88
  C:8B1EH         LINE#         89
  C:8B1EH         LINE#         91
  C:8B1EH         LINE#         92
  C:8B1EH         LINE#         93
  C:8B1EH         LINE#         94
  -------         ENDPROC       _SPIEXTA2D_TASK
  -------         PROC          SPIEXTA2D_SENDREQUEST
  -------         DO            
  X:0E1EH         SYMBOL        Message
  -------         ENDDO         
  C:7497H         LINE#         97
  C:7497H         LINE#         98
  C:7497H         LINE#         102
  C:749EH         LINE#         103
  C:74A1H         LINE#         106
  C:74A7H         LINE#         109
  C:74B6H         LINE#         110
  C:74DEH         LINE#         111
  C:74EDH         LINE#         114
  C:74F4H         LINE#         117
  C:751BH         LINE#         119
  C:751DH         LINE#         120
  -------         ENDPROC       SPIEXTA2D_SENDREQUEST
  -------         PROC          SPIEXTA2D_GETVALUES
  -------         DO            
  I:0024H         SYMBOL        InputData
  I:0026H         SYMBOL        PrevChannel
  -------         ENDDO         
  C:620AH         LINE#         122
  C:620AH         LINE#         123
  C:620AH         LINE#         128
  C:6213H         LINE#         129
  C:6216H         LINE#         132
  C:621DH         LINE#         135
  C:6239H         LINE#         136
  C:624BH         LINE#         137
  C:6274H         LINE#         140
BL51 BANKED LINKER/LOCATER V6.22                                                      04/28/2015  17:26:03  PAGE 144


  C:628CH         LINE#         143
  C:62B6H         LINE#         146
  C:62C6H         LINE#         149
  C:62C9H         LINE#         151
  C:62CEH         LINE#         152
  -------         ENDPROC       SPIEXTA2D_GETVALUES
  -------         PROC          _SPIEXTA2D_CALLBACK
  X:0E36H         SYMBOL        Status
  C:97D9H         LINE#         154
  C:97E3H         LINE#         156
  C:97EBH         LINE#         157
  C:97F3H         LINE#         159
  C:97F9H         LINE#         160
  -------         ENDPROC       _SPIEXTA2D_CALLBACK
  -------         PROC          SPIEXTA2D_GETFREEBUFFER
  C:9626H         LINE#         162
  C:9626H         LINE#         163
  C:9626H         LINE#         164
  C:9635H         LINE#         165
  C:964DH         LINE#         166
  -------         ENDPROC       SPIEXTA2D_GETFREEBUFFER
  -------         PROC          _SPIEXTA2D_GETREADING
  X:0E37H         SYMBOL        ChannelIndex
  C:9A65H         LINE#         168
  C:9A6AH         LINE#         169
  C:9A6AH         LINE#         170
  C:9A80H         LINE#         171
  -------         ENDPROC       _SPIEXTA2D_GETREADING
  -------         ENDMOD        SPIEXTA2D

  -------         MODULE        ?C?FPADD
  C:135BH         PUBLIC        ?C?FPADD
  C:1357H         PUBLIC        ?C?FPSUB
  -------         ENDMOD        ?C?FPADD

  -------         MODULE        ?C?FPMUL
  C:144CH         PUBLIC        ?C?FPMUL
  -------         ENDMOD        ?C?FPMUL

  -------         MODULE        ?C?FPDIV
  C:1555H         PUBLIC        ?C?FPDIV
  -------         ENDMOD        ?C?FPDIV

  -------         MODULE        ?C?FCAST
  C:15FCH         PUBLIC        ?C?FCASTC
  C:15F7H         PUBLIC        ?C?FCASTI
  C:15F2H         PUBLIC        ?C?FCASTL
  -------         ENDMOD        ?C?FCAST

  -------         MODULE        ?C?CASTF
  C:1630H         PUBLIC        ?C?CASTF
  -------         ENDMOD        ?C?CASTF

  -------         MODULE        POW
  X:0B3AH         PUBLIC        ?_pow?BYTE
  C:450EH         PUBLIC        _pow
  -------         ENDMOD        POW
BL51 BANKED LINKER/LOCATER V6.22                                                      04/28/2015  17:26:03  PAGE 145



  -------         MODULE        ?C?CHKFLOAT
  C:16B1H         PUBLIC        ?C?CHKFLOAT
  -------         ENDMOD        ?C?CHKFLOAT

  -------         MODULE        ?C?FPCMP
  C:16CDH         PUBLIC        ?C?FPCMP
  C:16CBH         PUBLIC        ?C?FPCMP3
  -------         ENDMOD        ?C?FPCMP

  -------         MODULE        ?C?FPNEG
  C:1744H         PUBLIC        ?C?FPNEG
  -------         ENDMOD        ?C?FPNEG

  -------         MODULE        EXP
  C:6D08H         PUBLIC        _EXP
  -------         ENDMOD        EXP

  -------         MODULE        LOG
  C:4BB1H         PUBLIC        _LOG
  C:4BADH         PUBLIC        _LOG10
  -------         ENDMOD        LOG

  -------         MODULE        ?C?COPY
  C:1872H         PUBLIC        ?C?COPY
  -------         ENDMOD        ?C?COPY

  -------         MODULE        ?C?CLDPTR
  C:1898H         PUBLIC        ?C?CLDPTR
  -------         ENDMOD        ?C?CLDPTR

  -------         MODULE        ?C?CLDOPTR
  C:18B1H         PUBLIC        ?C?CLDOPTR
  -------         ENDMOD        ?C?CLDOPTR

  -------         MODULE        ?C?CILDPTR
  C:18DEH         PUBLIC        ?C?CILDPTR
  -------         ENDMOD        ?C?CILDPTR

  -------         MODULE        ?C?CILDOPTR
  C:1900H         PUBLIC        ?C?CILDOPTR
  -------         ENDMOD        ?C?CILDOPTR

  -------         MODULE        ?C?CSTPTR
  C:1933H         PUBLIC        ?C?CSTPTR
  -------         ENDMOD        ?C?CSTPTR

  -------         MODULE        ?C?CSTOPTR
  C:1945H         PUBLIC        ?C?CSTOPTR
  -------         ENDMOD        ?C?CSTOPTR

  -------         MODULE        ?C?IMUL
  C:1967H         PUBLIC        ?C?IMUL
  -------         ENDMOD        ?C?IMUL

  -------         MODULE        ?C?UIDIV
  C:1979H         PUBLIC        ?C?UIDIV
BL51 BANKED LINKER/LOCATER V6.22                                                      04/28/2015  17:26:03  PAGE 146


  -------         ENDMOD        ?C?UIDIV

  -------         MODULE        ?C?SIDIV
  C:19CEH         PUBLIC        ?C?SIDIV
  -------         ENDMOD        ?C?SIDIV

  -------         MODULE        ?C?IILDX
  C:1A04H         PUBLIC        ?C?IILDX
  -------         ENDMOD        ?C?IILDX

  -------         MODULE        ?C?ILDIX
  C:1A1AH         PUBLIC        ?C?ILDIX
  -------         ENDMOD        ?C?ILDIX

  -------         MODULE        ?C?ILDPTR
  C:1A30H         PUBLIC        ?C?ILDPTR
  -------         ENDMOD        ?C?ILDPTR

  -------         MODULE        ?C?ILDOPTR
  C:1A5BH         PUBLIC        ?C?ILDOPTR
  -------         ENDMOD        ?C?ILDOPTR

  -------         MODULE        ?C?ISTPTR
  C:1A93H         PUBLIC        ?C?ISTPTR
  -------         ENDMOD        ?C?ISTPTR

  -------         MODULE        ?C?ISTOPTR
  C:1AB2H         PUBLIC        ?C?ISTOPTR
  -------         ENDMOD        ?C?ISTOPTR

  -------         MODULE        ?C?LMUL
  C:1ADFH         PUBLIC        ?C?LMUL
  -------         ENDMOD        ?C?LMUL

  -------         MODULE        ?C?SLDIV
  C:8C33H         PUBLIC        ?C?SLDIV
  -------         ENDMOD        ?C?SLDIV

  -------         MODULE        ?C?LNEG
  C:1B2EH         PUBLIC        ?C?LNEG
  -------         ENDMOD        ?C?LNEG

  -------         MODULE        ?C?LLDOPTR
  C:1B3CH         PUBLIC        ?C?LLDOPTR
  -------         ENDMOD        ?C?LLDOPTR

  -------         MODULE        ?C?LSTOPTR
  C:1B6CH         PUBLIC        ?C?LSTOPTR
  -------         ENDMOD        ?C?LSTOPTR

  -------         MODULE        ?C?LLDCODE
  C:1B90H         PUBLIC        ?C?LLDCODE
  -------         ENDMOD        ?C?LLDCODE

  -------         MODULE        ?C?LLDXDATA0
  C:1BA0H         PUBLIC        ?C?LLDXDATA0
  -------         ENDMOD        ?C?LLDXDATA0
BL51 BANKED LINKER/LOCATER V6.22                                                      04/28/2015  17:26:03  PAGE 147



  -------         MODULE        ?C?LLDCODE0
  C:1BACH         PUBLIC        ?C?LLDCODE0
  -------         ENDMOD        ?C?LLDCODE0

  -------         MODULE        ?C?LSTXDATA
  C:1BBCH         PUBLIC        ?C?LSTXDATA
  -------         ENDMOD        ?C?LSTXDATA

  -------         MODULE        ?C?LSTKXDATA
  C:1BC8H         PUBLIC        ?C?LSTKXDATA
  -------         ENDMOD        ?C?LSTKXDATA

  -------         MODULE        ?C?OFFXADD
  C:1BF9H         PUBLIC        ?C?OFFXADD
  -------         ENDMOD        ?C?OFFXADD

  -------         MODULE        ?C?CCASE
  C:1C05H         PUBLIC        ?C?CCASE
  -------         ENDMOD        ?C?CCASE

  -------         MODULE        ?C?ICALL
  C:1C2BH         PUBLIC        ?C?ICALL
  C:1C2FH         PUBLIC        ?C?ICALL2
  -------         ENDMOD        ?C?ICALL

  -------         MODULE        ABS
  C:9BF0H         PUBLIC        _ABS
  -------         ENDMOD        ABS

  -------         MODULE        ?C?MEMSET
  C:1C31H         PUBLIC        ?C?MEMSET
  -------         ENDMOD        ?C?MEMSET

  -------         MODULE        ?C?ULDIV
  C:1C99H         PUBLIC        ?C?ULDIV
  -------         ENDMOD        ?C?ULDIV

  -------         MODULE        ?C?LLDIDATA
  C:1D2BH         PUBLIC        ?C?LLDIDATA
  -------         ENDMOD        ?C?LLDIDATA

  -------         MODULE        ?C?LLDXDATA
  C:1D37H         PUBLIC        ?C?LLDXDATA
  -------         ENDMOD        ?C?LLDXDATA

  -------         MODULE        ?C?LLDPDATA
  C:1D43H         PUBLIC        ?C?LLDPDATA
  -------         ENDMOD        ?C?LLDPDATA

  -------         MODULE        ?C?LSTIDATA
  C:1D4FH         PUBLIC        ?C?LSTIDATA
  -------         ENDMOD        ?C?LSTIDATA

  -------         MODULE        ?C?LSTPDATA
  C:1D5BH         PUBLIC        ?C?LSTPDATA
  -------         ENDMOD        ?C?LSTPDATA
BL51 BANKED LINKER/LOCATER V6.22                                                      04/28/2015  17:26:03  PAGE 148



*** WARNING L16: UNCALLED SEGMENT, IGNORED FOR OVERLAY PROCESS
    SEGMENT: ?PR?_RINGBUFFGETELEMENTCOUNT?RINGBUFF

*** WARNING L16: UNCALLED SEGMENT, IGNORED FOR OVERLAY PROCESS
    SEGMENT: ?PR?_GETREADYMSGSNUMBER?RINGBUFF

*** WARNING L16: UNCALLED SEGMENT, IGNORED FOR OVERLAY PROCESS
    SEGMENT: ?PR?_SWAPSHORT?BYTEORDER

*** WARNING L16: UNCALLED SEGMENT, IGNORED FOR OVERLAY PROCESS
    SEGMENT: ?PR?_SWAPLONG?BYTEORDER

*** WARNING L16: UNCALLED SEGMENT, IGNORED FOR OVERLAY PROCESS
    SEGMENT: ?PR?_SWAPSHORTARRAY?BYTEORDER

*** WARNING L16: UNCALLED SEGMENT, IGNORED FOR OVERLAY PROCESS
    SEGMENT: ?PR?_SWAPLONGARRAY?BYTEORDER

*** WARNING L16: UNCALLED SEGMENT, IGNORED FOR OVERLAY PROCESS
    SEGMENT: ?PR?TIMER_1_INIT?TIMERDRV

*** WARNING L16: UNCALLED SEGMENT, IGNORED FOR OVERLAY PROCESS
    SEGMENT: ?PR?GETTIMERSTRUCTPTR?TIMERDRV

*** WARNING L16: UNCALLED SEGMENT, IGNORED FOR OVERLAY PROCESS
    SEGMENT: ?PR?_HEATERSETTEMPERATURE?HEATERCONTROL

*** WARNING L16: UNCALLED SEGMENT, IGNORED FOR OVERLAY PROCESS
    SEGMENT: ?PR?PRINTDRV_GETHEADPOSITION?PRINTDRIVER

*** WARNING L16: UNCALLED SEGMENT, IGNORED FOR OVERLAY PROCESS
    SEGMENT: ?PR?_PRINTDRV_SETRESULOTION?PRINTDRIVER

*** WARNING L16: UNCALLED SEGMENT, IGNORED FOR OVERLAY PROCESS
    SEGMENT: ?PR?PRINTDRV_GETBUMPERIMPACT?PRINTDRIVER

*** WARNING L16: UNCALLED SEGMENT, IGNORED FOR OVERLAY PROCESS
    SEGMENT: ?PR?_PRINTDRV_ISGETOPERATIONDONE?PRINTDRIVER

Program Size: data=40.5 xdata=3640 code=40027
LINK/LOCATE RUN COMPLETE.  13 WARNING(S),  0 ERROR(S)
